

Microchip MPLAB XC8 Assembler V2.35 build 20211206165544 
                                                                                               Tue May 10 10:55:03 2022

Microchip MPLAB XC8 C Compiler v2.35 (Free license) build 20211206165544 Og1 
     1                           	processor	16F887
     2                           	pagewidth 120
     3                           	opt	flic
     4                           	psect	idataBANK1,global,class=CODE,delta=2,noexec
     5                           	psect	cinit,global,class=CODE,merge=1,delta=2
     6                           	psect	bssCOMMON,global,class=COMMON,space=1,delta=1,noexec
     7                           	psect	bssBANK1,global,class=BANK1,space=1,delta=1,noexec
     8                           	psect	dataBANK1,global,class=BANK1,space=1,delta=1,noexec
     9                           	psect	cstackBANK1,global,class=BANK1,space=1,delta=1,noexec
    10                           	psect	cstackCOMMON,global,class=COMMON,space=1,delta=1,noexec
    11                           	psect	cstackBANK0,global,class=BANK0,space=1,delta=1,noexec
    12                           	psect	maintext,global,class=CODE,split=1,delta=2
    13                           	psect	text1,local,class=CODE,merge=1,delta=2
    14                           	psect	text2,local,class=CODE,merge=1,delta=2
    15                           	psect	text3,local,class=CODE,merge=1,delta=2,group=1
    16                           	psect	text4,local,class=CODE,merge=1,delta=2,group=1
    17                           	psect	text5,local,class=CODE,merge=1,delta=2,group=1
    18                           	psect	text6,local,class=CODE,merge=1,delta=2,group=1
    19                           	psect	text7,local,class=CODE,merge=1,delta=2,group=1
    20                           	psect	text8,local,class=CODE,merge=1,delta=2,group=1
    21                           	psect	text9,local,class=CODE,merge=1,delta=2
    22                           	psect	intentry,global,class=CODE,delta=2
    23                           	psect	idloc,global,abs,ovrld,class=IDLOC,space=5,delta=2,noexec
    24                           	psect	config,global,abs,ovrld,class=CONFIG,space=4,delta=2,noexec
    25                           	dabs	1,0x7E,2
    26  0000                     
    27                           ; Version 2.40
    28                           ; Generated 17/11/2021 GMT
    29                           ; 
    30                           ; Copyright © 2021, Microchip Technology Inc. and its subsidiaries ("Microchip")
    31                           ; All rights reserved.
    32                           ; 
    33                           ; This software is developed by Microchip Technology Inc. and its subsidiaries ("Microch
      +                          ip").
    34                           ; 
    35                           ; Redistribution and use in source and binary forms, with or without modification, are
    36                           ; permitted provided that the following conditions are met:
    37                           ; 
    38                           ;     1. Redistributions of source code must retain the above copyright notice, this lis
      +                          t of
    39                           ;        conditions and the following disclaimer.
    40                           ; 
    41                           ;     2. Redistributions in binary form must reproduce the above copyright notice, this 
      +                          list
    42                           ;        of conditions and the following disclaimer in the documentation and/or other
    43                           ;        materials provided with the distribution. Publication is not required when
    44                           ;        this file is used in an embedded application.
    45                           ; 
    46                           ;     3. Microchip's name may not be used to endorse or promote products derived from th
      +                          is
    47                           ;        software without specific prior written permission.
    48                           ; 
    49                           ; THIS SOFTWARE IS PROVIDED BY MICROCHIP "AS IS" AND ANY EXPRESS OR IMPLIED WARRANTIES,
    50                           ; INCLUDING, BUT NOT LIMITED TO, THE IMPLIED WARRANTIES OF MERCHANTABILITY AND FITNESS F
      +                          OR
    51                           ; PURPOSE ARE DISCLAIMED.  IN NO EVENT SHALL MICROCHIP BE LIABLE FOR ANY DIRECT, INDIREC
      +                          T,
    52                           ; INCIDENTAL, SPECIAL, EXEMPLARY, OR CONSEQUENTIAL DAMAGES (INCLUDING BUT NOT LIMITED TO
    53                           ; PROCUREMENT OF SUBSTITUTE GOODS OR SERVICES; LOSS OF USE, DATA OR PROFITS; OR BUSINESS
    54                           ; INTERRUPTION) HOWSOEVER CAUSED AND ON ANY THEORY OF LIABILITY, WHETHER IN CONTRACT, ST
      +                          RICT
    55                           ; LIABILITY, OR TORT (INCLUDING NEGLIGENCE OR OTHERWISE) ARISING IN ANY WAY OUT OF THE U
      +                          SE OF
    56                           ; THIS SOFTWARE, EVEN IF ADVISED OF THE POSSIBILITY OF SUCH DAMAGE.
    57                           ; 
    58                           ; 
    59                           ; Code-generator required, PIC16F887 Definitions
    60                           ; 
    61                           ; SFR Addresses
    62  0000                     	;# 
    63  0001                     	;# 
    64  0002                     	;# 
    65  0003                     	;# 
    66  0004                     	;# 
    67  0005                     	;# 
    68  0006                     	;# 
    69  0007                     	;# 
    70  0008                     	;# 
    71  0009                     	;# 
    72  000A                     	;# 
    73  000B                     	;# 
    74  000C                     	;# 
    75  000D                     	;# 
    76  000E                     	;# 
    77  000E                     	;# 
    78  000F                     	;# 
    79  0010                     	;# 
    80  0011                     	;# 
    81  0012                     	;# 
    82  0013                     	;# 
    83  0014                     	;# 
    84  0015                     	;# 
    85  0015                     	;# 
    86  0016                     	;# 
    87  0017                     	;# 
    88  0018                     	;# 
    89  0019                     	;# 
    90  001A                     	;# 
    91  001B                     	;# 
    92  001B                     	;# 
    93  001C                     	;# 
    94  001D                     	;# 
    95  001E                     	;# 
    96  001F                     	;# 
    97  0081                     	;# 
    98  0085                     	;# 
    99  0086                     	;# 
   100  0087                     	;# 
   101  0088                     	;# 
   102  0089                     	;# 
   103  008C                     	;# 
   104  008D                     	;# 
   105  008E                     	;# 
   106  008F                     	;# 
   107  0090                     	;# 
   108  0091                     	;# 
   109  0092                     	;# 
   110  0093                     	;# 
   111  0093                     	;# 
   112  0093                     	;# 
   113  0094                     	;# 
   114  0095                     	;# 
   115  0096                     	;# 
   116  0097                     	;# 
   117  0098                     	;# 
   118  0099                     	;# 
   119  009A                     	;# 
   120  009B                     	;# 
   121  009C                     	;# 
   122  009D                     	;# 
   123  009E                     	;# 
   124  009F                     	;# 
   125  0105                     	;# 
   126  0107                     	;# 
   127  0108                     	;# 
   128  0109                     	;# 
   129  010C                     	;# 
   130  010C                     	;# 
   131  010D                     	;# 
   132  010E                     	;# 
   133  010F                     	;# 
   134  0185                     	;# 
   135  0187                     	;# 
   136  0188                     	;# 
   137  0189                     	;# 
   138  018C                     	;# 
   139  018D                     	;# 
   140  0000                     	;# 
   141  0001                     	;# 
   142  0002                     	;# 
   143  0003                     	;# 
   144  0004                     	;# 
   145  0005                     	;# 
   146  0006                     	;# 
   147  0007                     	;# 
   148  0008                     	;# 
   149  0009                     	;# 
   150  000A                     	;# 
   151  000B                     	;# 
   152  000C                     	;# 
   153  000D                     	;# 
   154  000E                     	;# 
   155  000E                     	;# 
   156  000F                     	;# 
   157  0010                     	;# 
   158  0011                     	;# 
   159  0012                     	;# 
   160  0013                     	;# 
   161  0014                     	;# 
   162  0015                     	;# 
   163  0015                     	;# 
   164  0016                     	;# 
   165  0017                     	;# 
   166  0018                     	;# 
   167  0019                     	;# 
   168  001A                     	;# 
   169  001B                     	;# 
   170  001B                     	;# 
   171  001C                     	;# 
   172  001D                     	;# 
   173  001E                     	;# 
   174  001F                     	;# 
   175  0081                     	;# 
   176  0085                     	;# 
   177  0086                     	;# 
   178  0087                     	;# 
   179  0088                     	;# 
   180  0089                     	;# 
   181  008C                     	;# 
   182  008D                     	;# 
   183  008E                     	;# 
   184  008F                     	;# 
   185  0090                     	;# 
   186  0091                     	;# 
   187  0092                     	;# 
   188  0093                     	;# 
   189  0093                     	;# 
   190  0093                     	;# 
   191  0094                     	;# 
   192  0095                     	;# 
   193  0096                     	;# 
   194  0097                     	;# 
   195  0098                     	;# 
   196  0099                     	;# 
   197  009A                     	;# 
   198  009B                     	;# 
   199  009C                     	;# 
   200  009D                     	;# 
   201  009E                     	;# 
   202  009F                     	;# 
   203  0105                     	;# 
   204  0107                     	;# 
   205  0108                     	;# 
   206  0109                     	;# 
   207  010C                     	;# 
   208  010C                     	;# 
   209  010D                     	;# 
   210  010E                     	;# 
   211  010F                     	;# 
   212  0185                     	;# 
   213  0187                     	;# 
   214  0188                     	;# 
   215  0189                     	;# 
   216  018C                     	;# 
   217  018D                     	;# 
   218                           
   219                           	psect	idataBANK1
   220  07F2                     __pidataBANK1:
   221                           
   222                           ;initializer for _cont_slave
   223  07F2  34FF               	retlw	255
   224  0012                     _T2CONbits	set	18
   225  0017                     _CCP1CON	set	23
   226  0014                     _SSPCONbits	set	20
   227  0007                     _PORTC	set	7
   228  0005                     _PORTA	set	5
   229  0017                     _CCP1CONbits	set	23
   230  0015                     _CCPR1L	set	21
   231  0005                     _PORTAbits	set	5
   232  001F                     _ADCON0bits	set	31
   233  000B                     _INTCONbits	set	11
   234  0008                     _PORTD	set	8
   235  0013                     _SSPBUF	set	19
   236  001E                     _ADRESH	set	30
   237  000C                     _PIR1bits	set	12
   238  0006                     _PORTBbits	set	6
   239  0096                     _IOCB	set	150
   240  0092                     _PR2	set	146
   241  0087                     _TRISCbits	set	135
   242  008C                     _PIE1bits	set	140
   243  009F                     _ADCON1bits	set	159
   244  0087                     _TRISC	set	135
   245  008F                     _OSCCONbits	set	143
   246  0088                     _TRISD	set	136
   247  0086                     _TRISB	set	134
   248  0085                     _TRISA	set	133
   249  0094                     _SSPSTATbits	set	148
   250  0189                     _ANSELH	set	393
   251  0188                     _ANSEL	set	392
   252                           
   253                           	psect	cinit
   254  000F                     start_initialization:	
   255                           ; #config settings
   256                           
   257  000F                     __initialization:
   258                           
   259                           ; Initialize objects allocated to BANK1
   260  000F  1683               	bsf	3,5	;RP0=1, select bank1
   261  0010  1303               	bcf	3,6	;RP1=0, select bank1
   262  0011  120A  118A  27F2  120A  118A  	fcall	__pidataBANK1	;fetch initializer
   263  0016  00BA               	movwf	__pdataBANK1& (0+127)
   264                           
   265                           ; Clear objects allocated to BANK1
   266  0017  01B5               	clrf	__pbssBANK1& (0+127)
   267  0018  01B6               	clrf	(__pbssBANK1+1)& (0+127)
   268  0019  01B7               	clrf	(__pbssBANK1+2)& (0+127)
   269  001A  01B8               	clrf	(__pbssBANK1+3)& (0+127)
   270  001B  01B9               	clrf	(__pbssBANK1+4)& (0+127)
   271                           
   272                           ; Clear objects allocated to COMMON
   273  001C  01F8               	clrf	__pbssCOMMON& (0+127)
   274  001D  01F9               	clrf	(__pbssCOMMON+1)& (0+127)
   275  001E  01FA               	clrf	(__pbssCOMMON+2)& (0+127)
   276  001F                     end_of_initialization:	
   277                           ;End of C runtime variable initialization code
   278                           
   279  001F                     __end_of__initialization:
   280  001F  0183               	clrf	3
   281  0020  120A  118A  2EC4   	ljmp	_main	;jump to C main() function
   282                           
   283                           	psect	bssCOMMON
   284  0078                     __pbssCOMMON:
   285  0078                     _contador:
   286  0078                     	ds	1
   287  0079                     _val_temporal:
   288  0079                     	ds	1
   289  007A                     _cont_master:
   290  007A                     	ds	1
   291                           
   292                           	psect	bssBANK1
   293  00B5                     __pbssBANK1:
   294  00B5                     _CCPR:
   295  00B5                     	ds	2
   296  00B7                     _old_pot:
   297  00B7                     	ds	1
   298  00B8                     _valor_pwm:
   299  00B8                     	ds	1
   300  00B9                     _valor_pot:
   301  00B9                     	ds	1
   302                           
   303                           	psect	dataBANK1
   304  00BA                     __pdataBANK1:
   305  00BA                     _cont_slave:
   306  00BA                     	ds	1
   307                           
   308                           	psect	cstackBANK1
   309  00A0                     __pcstackBANK1:
   310  00A0                     ___fladd@signs:
   311                           
   312                           ; 1 bytes @ 0x0
   313  00A0                     	ds	1
   314  00A1                     ___fladd@aexp:
   315                           
   316                           ; 1 bytes @ 0x1
   317  00A1                     	ds	1
   318  00A2                     ___fladd@bexp:
   319                           
   320                           ; 1 bytes @ 0x2
   321  00A2                     	ds	1
   322  00A3                     ___fladd@grs:
   323                           
   324                           ; 1 bytes @ 0x3
   325  00A3                     	ds	1
   326  00A4                     ?___fltol:
   327  00A4                     ___fltol@f1:	
   328                           ; 4 bytes @ 0x4
   329                           
   330                           
   331                           ; 4 bytes @ 0x4
   332  00A4                     	ds	4
   333  00A8                     ??___fltol:
   334                           
   335                           ; 1 bytes @ 0x8
   336  00A8                     	ds	5
   337  00AD                     ?_map:
   338  00AD                     map@x0:	
   339                           ; 2 bytes @ 0xD
   340                           
   341                           
   342                           ; 1 bytes @ 0xD
   343  00AD                     	ds	1
   344  00AE                     map@x1:
   345                           
   346                           ; 1 bytes @ 0xE
   347  00AE                     	ds	1
   348  00AF                     map@y0:
   349                           
   350                           ; 2 bytes @ 0xF
   351  00AF                     	ds	2
   352  00B1                     map@y1:
   353                           
   354                           ; 2 bytes @ 0x11
   355  00B1                     	ds	2
   356  00B3                     ??_main:
   357                           
   358                           ; 1 bytes @ 0x13
   359  00B3                     	ds	2
   360                           
   361                           	psect	cstackCOMMON
   362  0070                     __pcstackCOMMON:
   363  0070                     ?_setup:
   364  0070                     ?_isr:	
   365                           ; 1 bytes @ 0x0
   366                           
   367  0070                     ??_isr:	
   368                           ; 1 bytes @ 0x0
   369                           
   370  0070                     ?_main:	
   371                           ; 1 bytes @ 0x0
   372                           
   373                           
   374                           ; 1 bytes @ 0x0
   375  0070                     	ds	3
   376  0073                     ??_setup:
   377  0073                     ?__Umul8_16:	
   378                           ; 1 bytes @ 0x3
   379                           
   380  0073                     ?___xxtofl:	
   381                           ; 2 bytes @ 0x3
   382                           
   383  0073                     __Umul8_16@multiplicand:	
   384                           ; 4 bytes @ 0x3
   385                           
   386  0073                     ___xxtofl@val:	
   387                           ; 1 bytes @ 0x3
   388                           
   389                           
   390                           ; 4 bytes @ 0x3
   391  0073                     	ds	2
   392  0075                     ??__Umul8_16:
   393                           
   394                           ; 1 bytes @ 0x5
   395  0075                     	ds	2
   396  0077                     ??_map:
   397  0077                     map@x:	
   398                           ; 1 bytes @ 0x7
   399                           
   400                           
   401                           ; 1 bytes @ 0x7
   402  0077                     	ds	1
   403                           
   404                           	psect	cstackBANK0
   405  0020                     __pcstackBANK0:
   406  0020                     ??___xxtofl:
   407  0020                     __Umul8_16@product:	
   408                           ; 1 bytes @ 0x0
   409                           
   410                           
   411                           ; 2 bytes @ 0x0
   412  0020                     	ds	2
   413  0022                     __Umul8_16@word_mpld:
   414                           
   415                           ; 2 bytes @ 0x2
   416  0022                     	ds	2
   417  0024                     __Umul8_16@multiplier:
   418  0024                     ___xxtofl@sign:	
   419                           ; 1 bytes @ 0x4
   420                           
   421                           
   422                           ; 1 bytes @ 0x4
   423  0024                     	ds	1
   424  0025                     ___xxtofl@exp:
   425                           
   426                           ; 1 bytes @ 0x5
   427  0025                     	ds	1
   428  0026                     ___xxtofl@arg:
   429                           
   430                           ; 4 bytes @ 0x6
   431  0026                     	ds	4
   432  002A                     ?___fldiv:
   433  002A                     ___fldiv@a:	
   434                           ; 4 bytes @ 0xA
   435                           
   436                           
   437                           ; 4 bytes @ 0xA
   438  002A                     	ds	4
   439  002E                     ___fldiv@b:
   440                           
   441                           ; 4 bytes @ 0xE
   442  002E                     	ds	4
   443  0032                     ??___fldiv:
   444                           
   445                           ; 1 bytes @ 0x12
   446  0032                     	ds	5
   447  0037                     ___fldiv@rem:
   448                           
   449                           ; 4 bytes @ 0x17
   450  0037                     	ds	4
   451  003B                     ___fldiv@sign:
   452                           
   453                           ; 1 bytes @ 0x1B
   454  003B                     	ds	1
   455  003C                     ___fldiv@new_exp:
   456                           
   457                           ; 2 bytes @ 0x1C
   458  003C                     	ds	2
   459  003E                     ___fldiv@grs:
   460                           
   461                           ; 4 bytes @ 0x1E
   462  003E                     	ds	4
   463  0042                     ___fldiv@bexp:
   464                           
   465                           ; 1 bytes @ 0x22
   466  0042                     	ds	1
   467  0043                     ___fldiv@aexp:
   468                           
   469                           ; 1 bytes @ 0x23
   470  0043                     	ds	1
   471  0044                     ?___flmul:
   472  0044                     ___flmul@b:	
   473                           ; 4 bytes @ 0x24
   474                           
   475                           
   476                           ; 4 bytes @ 0x24
   477  0044                     	ds	4
   478  0048                     ___flmul@a:
   479                           
   480                           ; 4 bytes @ 0x28
   481  0048                     	ds	4
   482  004C                     ??___flmul:
   483                           
   484                           ; 1 bytes @ 0x2C
   485  004C                     	ds	5
   486  0051                     ___flmul@sign:
   487                           
   488                           ; 1 bytes @ 0x31
   489  0051                     	ds	1
   490  0052                     ___flmul@aexp:
   491                           
   492                           ; 1 bytes @ 0x32
   493  0052                     	ds	1
   494  0053                     ___flmul@grs:
   495                           
   496                           ; 4 bytes @ 0x33
   497  0053                     	ds	4
   498  0057                     ___flmul@bexp:
   499                           
   500                           ; 1 bytes @ 0x37
   501  0057                     	ds	1
   502  0058                     ___flmul@prod:
   503                           
   504                           ; 4 bytes @ 0x38
   505  0058                     	ds	4
   506  005C                     ___flmul@temp:
   507                           
   508                           ; 2 bytes @ 0x3C
   509  005C                     	ds	2
   510  005E                     ?___fladd:
   511  005E                     ___fladd@b:	
   512                           ; 4 bytes @ 0x3E
   513                           
   514                           
   515                           ; 4 bytes @ 0x3E
   516  005E                     	ds	4
   517  0062                     ___fladd@a:
   518                           
   519                           ; 4 bytes @ 0x42
   520  0062                     	ds	4
   521  0066                     ??___fladd:
   522                           
   523                           ; 1 bytes @ 0x46
   524  0066                     	ds	8
   525  006E                     ___fltol@sign1:
   526                           
   527                           ; 1 bytes @ 0x4E
   528  006E                     	ds	1
   529  006F                     ___fltol@exp1:
   530                           
   531                           ; 1 bytes @ 0x4F
   532  006F                     	ds	1
   533                           
   534                           	psect	maintext
   535  06C4                     __pmaintext:	
   536 ;;
   537 ;;Main: autosize = 0, tempsize = 2, incstack = 0, save=0
   538 ;;
   539 ;; *************** function _main *****************
   540 ;; Defined at:
   541 ;;		line 94 in file "main.c"
   542 ;; Parameters:    Size  Location     Type
   543 ;;		None
   544 ;; Auto vars:     Size  Location     Type
   545 ;;		None
   546 ;; Return value:  Size  Location     Type
   547 ;;                  1    wreg      void 
   548 ;; Registers used:
   549 ;;		wreg, status,2, status,0, btemp+1, pclath, cstack
   550 ;; Tracked objects:
   551 ;;		On entry : B00/0
   552 ;;		On exit  : 0/0
   553 ;;		Unchanged: 0/0
   554 ;; Data sizes:     COMMON   BANK0   BANK1   BANK3   BANK2
   555 ;;      Params:         0       0       0       0       0
   556 ;;      Locals:         0       0       0       0       0
   557 ;;      Temps:          0       0       2       0       0
   558 ;;      Totals:         0       0       2       0       0
   559 ;;Total ram usage:        2 bytes
   560 ;; Hardware stack levels required when called: 4
   561 ;; This function calls:
   562 ;;		_map
   563 ;;		_setup
   564 ;; This function is called by:
   565 ;;		Startup code after reset
   566 ;; This function uses a non-reentrant model
   567 ;;
   568                           
   569  06C4                     _main:	
   570                           ;psect for function _main
   571                           
   572  06C4                     l2762:	
   573                           ;incstack = 0
   574                           ; Regs used in _main: [wreg+status,2+status,0+btemp+1+pclath+cstack]
   575                           
   576                           
   577                           ;main.c: 95:     setup();
   578  06C4  120A  158A  2396  120A  118A  	fcall	_setup
   579  06C9                     l2764:
   580                           
   581                           ;main.c: 98:         if (PORTBbits.RB5){
   582  06C9  1283               	bcf	3,5	;RP0=0, select bank0
   583  06CA  1303               	bcf	3,6	;RP1=0, select bank0
   584  06CB  1E86               	btfss	6,5	;volatile
   585  06CC  2ECE               	goto	u4441
   586  06CD  2ECF               	goto	u4440
   587  06CE                     u4441:
   588  06CE  2F43               	goto	l2788
   589  06CF                     u4440:
   590  06CF                     l2766:
   591                           
   592                           ;main.c: 99:             if (ADCON0bits.GO == 0){
   593  06CF  189F               	btfsc	31,1	;volatile
   594  06D0  2ED2               	goto	u4451
   595  06D1  2ED3               	goto	u4450
   596  06D2                     u4451:
   597  06D2  2ED4               	goto	l101
   598  06D3                     u4450:
   599  06D3                     l2768:
   600                           
   601                           ;main.c: 100:                 ADCON0bits.GO = 1;
   602  06D3  149F               	bsf	31,1	;volatile
   603  06D4                     l101:	
   604                           ;main.c: 101:             }
   605                           
   606                           
   607                           ;main.c: 104:             PORTAbits.RA6 = 1;
   608  06D4  1705               	bsf	5,6	;volatile
   609  06D5                     l2770:
   610                           
   611                           ;main.c: 105:             _delay((unsigned long)((10)*(1000000/4000.0)));
   612  06D5  3004               	movlw	4
   613  06D6  1683               	bsf	3,5	;RP0=1, select bank1
   614  06D7  1303               	bcf	3,6	;RP1=0, select bank1
   615  06D8  00B4               	movwf	(??_main^(0+128)+1)
   616  06D9  303D               	movlw	61
   617  06DA  00B3               	movwf	??_main^(0+128)
   618  06DB                     u4497:
   619  06DB  0BB3               	decfsz	??_main^(0+128),f
   620  06DC  2EDB               	goto	u4497
   621  06DD  0BB4               	decfsz	(??_main^(0+128)+1),f
   622  06DE  2EDB               	goto	u4497
   623  06DF                     l2772:
   624                           
   625                           ;main.c: 106:             PORTAbits.RA6 = 0;
   626  06DF  1283               	bcf	3,5	;RP0=0, select bank0
   627  06E0  1303               	bcf	3,6	;RP1=0, select bank0
   628  06E1  1305               	bcf	5,6	;volatile
   629                           
   630                           ;main.c: 107:             _delay((unsigned long)((10)*(1000000/4000.0)));
   631  06E2  3004               	movlw	4
   632  06E3  1683               	bsf	3,5	;RP0=1, select bank1
   633  06E4  1303               	bcf	3,6	;RP1=0, select bank1
   634  06E5  00B4               	movwf	(??_main^(0+128)+1)
   635  06E6  303D               	movlw	61
   636  06E7  00B3               	movwf	??_main^(0+128)
   637  06E8                     u4507:
   638  06E8  0BB3               	decfsz	??_main^(0+128),f
   639  06E9  2EE8               	goto	u4507
   640  06EA  0BB4               	decfsz	(??_main^(0+128)+1),f
   641  06EB  2EE8               	goto	u4507
   642                           
   643                           ;main.c: 109:             if(valor_pot != old_pot){
   644  06EC  1683               	bsf	3,5	;RP0=1, select bank1
   645  06ED  1303               	bcf	3,6	;RP1=0, select bank1
   646  06EE  0839               	movf	_valor_pot^(0+128),w
   647  06EF  0637               	xorwf	_old_pot^(0+128),w
   648  06F0  1903               	skipnz
   649  06F1  2EF3               	goto	u4461
   650  06F2  2EF4               	goto	u4460
   651  06F3                     u4461:
   652  06F3  2F02               	goto	l2778
   653  06F4                     u4460:
   654  06F4                     l2774:
   655                           
   656                           ;main.c: 110:                 SSPBUF = valor_pot;
   657  06F4  0839               	movf	_valor_pot^(0+128),w
   658  06F5  1283               	bcf	3,5	;RP0=0, select bank0
   659  06F6  1303               	bcf	3,6	;RP1=0, select bank0
   660  06F7  0093               	movwf	19	;volatile
   661  06F8                     l103:	
   662                           ;main.c: 111:                 while(!SSPSTATbits.BF){}
   663                           
   664  06F8  1683               	bsf	3,5	;RP0=1, select bank1
   665  06F9  1303               	bcf	3,6	;RP1=0, select bank1
   666  06FA  1C14               	btfss	20,0	;volatile
   667  06FB  2EFD               	goto	u4471
   668  06FC  2EFE               	goto	u4470
   669  06FD                     u4471:
   670  06FD  2EF8               	goto	l103
   671  06FE                     u4470:
   672  06FE                     l2776:
   673                           
   674                           ;main.c: 112:                 old_pot = valor_pot;
   675  06FE  0839               	movf	_valor_pot^(0+128),w
   676  06FF  00B3               	movwf	??_main^(0+128)
   677  0700  0833               	movf	??_main^(0+128),w
   678  0701  00B7               	movwf	_old_pot^(0+128)
   679  0702                     l2778:
   680                           
   681                           ;main.c: 114:             PORTAbits.RA6 = 1;
   682  0702  1283               	bcf	3,5	;RP0=0, select bank0
   683  0703  1303               	bcf	3,6	;RP1=0, select bank0
   684  0704  1705               	bsf	5,6	;volatile
   685                           
   686                           ;main.c: 115:             _delay((unsigned long)((10)*(1000000/4000.0)));
   687  0705  3004               	movlw	4
   688  0706  1683               	bsf	3,5	;RP0=1, select bank1
   689  0707  1303               	bcf	3,6	;RP1=0, select bank1
   690  0708  00B4               	movwf	(??_main^(0+128)+1)
   691  0709  303D               	movlw	61
   692  070A  00B3               	movwf	??_main^(0+128)
   693  070B                     u4517:
   694  070B  0BB3               	decfsz	??_main^(0+128),f
   695  070C  2F0B               	goto	u4517
   696  070D  0BB4               	decfsz	(??_main^(0+128)+1),f
   697  070E  2F0B               	goto	u4517
   698  070F                     l2780:
   699                           
   700                           ;main.c: 119:             PORTAbits.RA7 = 1;
   701  070F  1283               	bcf	3,5	;RP0=0, select bank0
   702  0710  1303               	bcf	3,6	;RP1=0, select bank0
   703  0711  1785               	bsf	5,7	;volatile
   704                           
   705                           ;main.c: 120:             _delay((unsigned long)((10)*(1000000/4000.0)));
   706  0712  3004               	movlw	4
   707  0713  1683               	bsf	3,5	;RP0=1, select bank1
   708  0714  1303               	bcf	3,6	;RP1=0, select bank1
   709  0715  00B4               	movwf	(??_main^(0+128)+1)
   710  0716  303D               	movlw	61
   711  0717  00B3               	movwf	??_main^(0+128)
   712  0718                     u4527:
   713  0718  0BB3               	decfsz	??_main^(0+128),f
   714  0719  2F18               	goto	u4527
   715  071A  0BB4               	decfsz	(??_main^(0+128)+1),f
   716  071B  2F18               	goto	u4527
   717  071C                     l2782:
   718                           
   719                           ;main.c: 121:             PORTAbits.RA7 = 0;
   720  071C  1283               	bcf	3,5	;RP0=0, select bank0
   721  071D  1303               	bcf	3,6	;RP1=0, select bank0
   722  071E  1385               	bcf	5,7	;volatile
   723                           
   724                           ;main.c: 122:             _delay((unsigned long)((10)*(1000000/4000.0)));
   725  071F  3004               	movlw	4
   726  0720  1683               	bsf	3,5	;RP0=1, select bank1
   727  0721  1303               	bcf	3,6	;RP1=0, select bank1
   728  0722  00B4               	movwf	(??_main^(0+128)+1)
   729  0723  303D               	movlw	61
   730  0724  00B3               	movwf	??_main^(0+128)
   731  0725                     u4537:
   732  0725  0BB3               	decfsz	??_main^(0+128),f
   733  0726  2F25               	goto	u4537
   734  0727  0BB4               	decfsz	(??_main^(0+128)+1),f
   735  0728  2F25               	goto	u4537
   736                           
   737                           ;main.c: 124:             SSPBUF = 0xFF;
   738  0729  30FF               	movlw	255
   739  072A  1283               	bcf	3,5	;RP0=0, select bank0
   740  072B  1303               	bcf	3,6	;RP1=0, select bank0
   741  072C  0093               	movwf	19	;volatile
   742  072D                     l106:	
   743                           ;main.c: 125:             while(!SSPSTATbits.BF){}
   744                           
   745  072D  1683               	bsf	3,5	;RP0=1, select bank1
   746  072E  1303               	bcf	3,6	;RP1=0, select bank1
   747  072F  1C14               	btfss	20,0	;volatile
   748  0730  2F32               	goto	u4481
   749  0731  2F33               	goto	u4480
   750  0732                     u4481:
   751  0732  2F2D               	goto	l106
   752  0733                     u4480:
   753  0733                     l2784:
   754                           
   755                           ;main.c: 126:             PORTD = SSPBUF;
   756  0733  1283               	bcf	3,5	;RP0=0, select bank0
   757  0734  1303               	bcf	3,6	;RP1=0, select bank0
   758  0735  0813               	movf	19,w	;volatile
   759  0736  0088               	movwf	8	;volatile
   760  0737                     l2786:
   761                           
   762                           ;main.c: 127:             PORTAbits.RA7 = 1;
   763  0737  1785               	bsf	5,7	;volatile
   764                           
   765                           ;main.c: 128:             _delay((unsigned long)((10)*(1000000/4000.0)));
   766  0738  3004               	movlw	4
   767  0739  1683               	bsf	3,5	;RP0=1, select bank1
   768  073A  1303               	bcf	3,6	;RP1=0, select bank1
   769  073B  00B4               	movwf	(??_main^(0+128)+1)
   770  073C  303D               	movlw	61
   771  073D  00B3               	movwf	??_main^(0+128)
   772  073E                     u4547:
   773  073E  0BB3               	decfsz	??_main^(0+128),f
   774  073F  2F3E               	goto	u4547
   775  0740  0BB4               	decfsz	(??_main^(0+128)+1),f
   776  0741  2F3E               	goto	u4547
   777                           
   778                           ;main.c: 129:         }
   779  0742  2EC9               	goto	l2764
   780  0743                     l2788:
   781                           
   782                           ;main.c: 132:             CCPR = map(PORTD, 0, 255, 5, 50);
   783  0743  1683               	bsf	3,5	;RP0=1, select bank1
   784  0744  1303               	bcf	3,6	;RP1=0, select bank1
   785  0745  01AD               	clrf	map@x0^(0+128)
   786  0746  30FF               	movlw	255
   787  0747  00B3               	movwf	??_main^(0+128)
   788  0748  0833               	movf	??_main^(0+128),w
   789  0749  00AE               	movwf	map@x1^(0+128)
   790  074A  3005               	movlw	5
   791  074B  00AF               	movwf	map@y0^(0+128)
   792  074C  3000               	movlw	0
   793  074D  00B0               	movwf	(map@y0^(0+128)+1)
   794  074E  3032               	movlw	50
   795  074F  00B1               	movwf	map@y1^(0+128)
   796  0750  3000               	movlw	0
   797  0751  00B2               	movwf	(map@y1^(0+128)+1)
   798  0752  1283               	bcf	3,5	;RP0=0, select bank0
   799  0753  1303               	bcf	3,6	;RP1=0, select bank0
   800  0754  0808               	movf	8,w	;volatile
   801  0755  120A  158A  24B1  120A  118A  	fcall	_map
   802  075A  1683               	bsf	3,5	;RP0=1, select bank1
   803  075B  1303               	bcf	3,6	;RP1=0, select bank1
   804  075C  082E               	movf	(?_map+1)^(0+128),w
   805  075D  00B6               	movwf	(_CCPR+1)^(0+128)
   806  075E  082D               	movf	?_map^(0+128),w
   807  075F  00B5               	movwf	_CCPR^(0+128)
   808  0760                     l2790:
   809                           
   810                           ;main.c: 133:             CCPR1L = (uint8_t)(CCPR>>2);
   811  0760  0836               	movf	(_CCPR+1)^(0+128),w
   812  0761  00B4               	movwf	(??_main^(0+128)+1)
   813  0762  0835               	movf	_CCPR^(0+128),w
   814  0763  00B3               	movwf	??_main^(0+128)
   815  0764  1003               	clrc
   816  0765  0CB4               	rrf	(??_main^(0+128)+1),f
   817  0766  0CB3               	rrf	??_main^(0+128),f
   818  0767  1003               	clrc
   819  0768  0CB4               	rrf	(??_main^(0+128)+1),f
   820  0769  0CB3               	rrf	??_main^(0+128),f
   821  076A  0833               	movf	??_main^(0+128),w
   822  076B  1283               	bcf	3,5	;RP0=0, select bank0
   823  076C  1303               	bcf	3,6	;RP1=0, select bank0
   824  076D  0095               	movwf	21	;volatile
   825  076E                     l2792:
   826                           
   827                           ;main.c: 134:             CCP1CONbits.DC1B = CCPR & 0b11;
   828  076E  1683               	bsf	3,5	;RP0=1, select bank1
   829  076F  1303               	bcf	3,6	;RP1=0, select bank1
   830  0770  0835               	movf	_CCPR^(0+128),w
   831  0771  3903               	andlw	3
   832  0772  00B3               	movwf	??_main^(0+128)
   833  0773  0EB3               	swapf	??_main^(0+128),f
   834  0774  1283               	bcf	3,5	;RP0=0, select bank0
   835  0775  1303               	bcf	3,6	;RP1=0, select bank0
   836  0776  0817               	movf	23,w	;volatile
   837  0777  1683               	bsf	3,5	;RP0=1, select bank1
   838  0778  1303               	bcf	3,6	;RP1=0, select bank1
   839  0779  0633               	xorwf	??_main^(0+128),w
   840  077A  39CF               	andlw	-49
   841  077B  0633               	xorwf	??_main^(0+128),w
   842  077C  1283               	bcf	3,5	;RP0=0, select bank0
   843  077D  1303               	bcf	3,6	;RP1=0, select bank0
   844  077E  0097               	movwf	23	;volatile
   845  077F  2EC9               	goto	l2764
   846  0780  120A  118A  280C   	ljmp	start
   847  0783                     __end_of_main:
   848                           
   849                           	psect	text1
   850  0B96                     __ptext1:	
   851 ;; *************** function _setup *****************
   852 ;; Defined at:
   853 ;;		line 143 in file "main.c"
   854 ;; Parameters:    Size  Location     Type
   855 ;;		None
   856 ;; Auto vars:     Size  Location     Type
   857 ;;		None
   858 ;; Return value:  Size  Location     Type
   859 ;;                  1    wreg      void 
   860 ;; Registers used:
   861 ;;		wreg, status,2, status,0
   862 ;; Tracked objects:
   863 ;;		On entry : 0/0
   864 ;;		On exit  : 0/0
   865 ;;		Unchanged: 0/0
   866 ;; Data sizes:     COMMON   BANK0   BANK1   BANK3   BANK2
   867 ;;      Params:         0       0       0       0       0
   868 ;;      Locals:         0       0       0       0       0
   869 ;;      Temps:          1       0       0       0       0
   870 ;;      Totals:         1       0       0       0       0
   871 ;;Total ram usage:        1 bytes
   872 ;; Hardware stack levels used: 1
   873 ;; Hardware stack levels required when called: 1
   874 ;; This function calls:
   875 ;;		Nothing
   876 ;; This function is called by:
   877 ;;		_main
   878 ;; This function uses a non-reentrant model
   879 ;;
   880                           
   881  0B96                     _setup:	
   882                           ;psect for function _setup
   883                           
   884  0B96                     l2020:	
   885                           ;incstack = 0
   886                           ; Regs used in _setup: [wreg+status,2+status,0]
   887                           
   888                           
   889                           ;main.c: 144:     ANSEL = 0x01;
   890  0B96  3001               	movlw	1
   891  0B97  1683               	bsf	3,5	;RP0=1, select bank3
   892  0B98  1703               	bsf	3,6	;RP1=1, select bank3
   893  0B99  0088               	movwf	8	;volatile
   894  0B9A                     l2022:
   895                           
   896                           ;main.c: 145:     ANSELH = 0;
   897  0B9A  0189               	clrf	9	;volatile
   898  0B9B                     l2024:
   899                           
   900                           ;main.c: 147:     TRISA = 0b00100001;
   901  0B9B  3021               	movlw	33
   902  0B9C  1683               	bsf	3,5	;RP0=1, select bank1
   903  0B9D  1303               	bcf	3,6	;RP1=0, select bank1
   904  0B9E  0085               	movwf	5	;volatile
   905                           
   906                           ;main.c: 148:     PORTA = 0;
   907  0B9F  1283               	bcf	3,5	;RP0=0, select bank0
   908  0BA0  1303               	bcf	3,6	;RP1=0, select bank0
   909  0BA1  0185               	clrf	5	;volatile
   910  0BA2                     l2026:
   911                           
   912                           ;main.c: 150:     TRISB = 0xFF;
   913  0BA2  30FF               	movlw	255
   914  0BA3  1683               	bsf	3,5	;RP0=1, select bank1
   915  0BA4  1303               	bcf	3,6	;RP1=0, select bank1
   916  0BA5  0086               	movwf	6	;volatile
   917  0BA6                     l2028:
   918                           
   919                           ;main.c: 152:     TRISD = 0;
   920  0BA6  0188               	clrf	8	;volatile
   921  0BA7                     l2030:
   922                           
   923                           ;main.c: 153:     PORTD = 0;
   924  0BA7  1283               	bcf	3,5	;RP0=0, select bank0
   925  0BA8  1303               	bcf	3,6	;RP1=0, select bank0
   926  0BA9  0188               	clrf	8	;volatile
   927  0BAA                     l2032:
   928                           
   929                           ;main.c: 155:     OSCCONbits.IRCF = 0b100;
   930  0BAA  1683               	bsf	3,5	;RP0=1, select bank1
   931  0BAB  1303               	bcf	3,6	;RP1=0, select bank1
   932  0BAC  080F               	movf	15,w	;volatile
   933  0BAD  398F               	andlw	-113
   934  0BAE  3840               	iorlw	64
   935  0BAF  008F               	movwf	15	;volatile
   936  0BB0                     l2034:
   937                           
   938                           ;main.c: 156:     OSCCONbits.SCS = 1;
   939  0BB0  140F               	bsf	15,0	;volatile
   940  0BB1                     l2036:
   941                           
   942                           ;main.c: 160:     if(PORTBbits.RB5){
   943  0BB1  1283               	bcf	3,5	;RP0=0, select bank0
   944  0BB2  1303               	bcf	3,6	;RP1=0, select bank0
   945  0BB3  1E86               	btfss	6,5	;volatile
   946  0BB4  2BB6               	goto	u2921
   947  0BB5  2BB7               	goto	u2920
   948  0BB6                     u2921:
   949  0BB6  2BE7               	goto	l2076
   950  0BB7                     u2920:
   951  0BB7                     l2038:
   952                           
   953                           ;main.c: 161:         TRISC = 0b00010000;
   954  0BB7  3010               	movlw	16
   955  0BB8  1683               	bsf	3,5	;RP0=1, select bank1
   956  0BB9  1303               	bcf	3,6	;RP1=0, select bank1
   957  0BBA  0087               	movwf	7	;volatile
   958  0BBB                     l2040:
   959                           
   960                           ;main.c: 162:         PORTC = 0;
   961  0BBB  1283               	bcf	3,5	;RP0=0, select bank0
   962  0BBC  1303               	bcf	3,6	;RP1=0, select bank0
   963  0BBD  0187               	clrf	7	;volatile
   964  0BBE                     l2042:
   965                           
   966                           ;main.c: 165:         SSPCONbits.SSPM = 0b0000;
   967  0BBE  30F0               	movlw	-16
   968  0BBF  0594               	andwf	20,f	;volatile
   969  0BC0                     l2044:
   970                           
   971                           ;main.c: 166:         SSPCONbits.CKP = 0;
   972  0BC0  1214               	bcf	20,4	;volatile
   973  0BC1                     l2046:
   974                           
   975                           ;main.c: 167:         SSPCONbits.SSPEN = 1;
   976  0BC1  1694               	bsf	20,5	;volatile
   977  0BC2                     l2048:
   978                           
   979                           ;main.c: 169:         SSPSTATbits.CKE = 1;
   980  0BC2  1683               	bsf	3,5	;RP0=1, select bank1
   981  0BC3  1303               	bcf	3,6	;RP1=0, select bank1
   982  0BC4  1714               	bsf	20,6	;volatile
   983  0BC5                     l2050:
   984                           
   985                           ;main.c: 170:         SSPSTATbits.SMP = 1;
   986  0BC5  1794               	bsf	20,7	;volatile
   987  0BC6                     l2052:
   988                           
   989                           ;main.c: 171:         SSPBUF = valor_pot;
   990  0BC6  0839               	movf	_valor_pot^(0+128),w
   991  0BC7  1283               	bcf	3,5	;RP0=0, select bank0
   992  0BC8  1303               	bcf	3,6	;RP1=0, select bank0
   993  0BC9  0093               	movwf	19	;volatile
   994  0BCA                     l2054:
   995                           
   996                           ;main.c: 174:         ADCON0bits.ADCS = 0b00;
   997  0BCA  303F               	movlw	-193
   998  0BCB  059F               	andwf	31,f	;volatile
   999  0BCC                     l2056:
  1000                           
  1001                           ;main.c: 175:         ADCON1bits.VCFG0 = 0;
  1002  0BCC  1683               	bsf	3,5	;RP0=1, select bank1
  1003  0BCD  1303               	bcf	3,6	;RP1=0, select bank1
  1004  0BCE  121F               	bcf	31,4	;volatile
  1005  0BCF                     l2058:
  1006                           
  1007                           ;main.c: 176:         ADCON1bits.VCFG1 = 0;
  1008  0BCF  129F               	bcf	31,5	;volatile
  1009  0BD0                     l2060:
  1010                           
  1011                           ;main.c: 177:         ADCON0bits.CHS = 0b0000;
  1012  0BD0  30C3               	movlw	-61
  1013  0BD1  1283               	bcf	3,5	;RP0=0, select bank0
  1014  0BD2  1303               	bcf	3,6	;RP1=0, select bank0
  1015  0BD3  059F               	andwf	31,f	;volatile
  1016  0BD4                     l2062:
  1017                           
  1018                           ;main.c: 178:         ADCON1bits.ADFM = 0;
  1019  0BD4  1683               	bsf	3,5	;RP0=1, select bank1
  1020  0BD5  1303               	bcf	3,6	;RP1=0, select bank1
  1021  0BD6  139F               	bcf	31,7	;volatile
  1022  0BD7                     l2064:
  1023                           
  1024                           ;main.c: 179:         ADCON0bits.ADON = 1;
  1025  0BD7  1283               	bcf	3,5	;RP0=0, select bank0
  1026  0BD8  1303               	bcf	3,6	;RP1=0, select bank0
  1027  0BD9  141F               	bsf	31,0	;volatile
  1028  0BDA                     l2066:
  1029                           
  1030                           ;main.c: 180:         _delay((unsigned long)((40)*(1000000/4000000.0)));
  1031  0BDA  3003               	movlw	3
  1032  0BDB  00F3               	movwf	??_setup
  1033  0BDC                     u4557:
  1034  0BDC  0BF3               	decfsz	??_setup,f
  1035  0BDD  2BDC               	goto	u4557
  1036  0BDE                     l2068:
  1037                           
  1038                           ;main.c: 183:         PIR1bits.ADIF = 0;
  1039  0BDE  1283               	bcf	3,5	;RP0=0, select bank0
  1040  0BDF  1303               	bcf	3,6	;RP1=0, select bank0
  1041  0BE0  130C               	bcf	12,6	;volatile
  1042  0BE1                     l2070:
  1043                           
  1044                           ;main.c: 184:         PIE1bits.ADIE = 1;
  1045  0BE1  1683               	bsf	3,5	;RP0=1, select bank1
  1046  0BE2  1303               	bcf	3,6	;RP1=0, select bank1
  1047  0BE3  170C               	bsf	12,6	;volatile
  1048  0BE4                     l2072:
  1049                           
  1050                           ;main.c: 185:         INTCONbits.PEIE = 1;
  1051  0BE4  170B               	bsf	11,6	;volatile
  1052  0BE5                     l2074:
  1053                           
  1054                           ;main.c: 186:         INTCONbits.GIE = 1;
  1055  0BE5  178B               	bsf	11,7	;volatile
  1056                           
  1057                           ;main.c: 187:     }
  1058  0BE6  2C1E               	goto	l117
  1059  0BE7                     l2076:
  1060                           
  1061                           ;main.c: 190:         TRISC = 0b00011000;
  1062  0BE7  3018               	movlw	24
  1063  0BE8  1683               	bsf	3,5	;RP0=1, select bank1
  1064  0BE9  1303               	bcf	3,6	;RP1=0, select bank1
  1065  0BEA  0087               	movwf	7	;volatile
  1066  0BEB                     l2078:
  1067                           
  1068                           ;main.c: 191:         PORTC = 0;
  1069  0BEB  1283               	bcf	3,5	;RP0=0, select bank0
  1070  0BEC  1303               	bcf	3,6	;RP1=0, select bank0
  1071  0BED  0187               	clrf	7	;volatile
  1072  0BEE                     l2080:
  1073                           
  1074                           ;main.c: 194:         SSPCONbits.SSPM = 0b0100;
  1075  0BEE  0814               	movf	20,w	;volatile
  1076  0BEF  39F0               	andlw	-16
  1077  0BF0  3804               	iorlw	4
  1078  0BF1  0094               	movwf	20	;volatile
  1079  0BF2                     l2082:
  1080                           
  1081                           ;main.c: 195:         SSPCONbits.CKP = 0;
  1082  0BF2  1214               	bcf	20,4	;volatile
  1083  0BF3                     l2084:
  1084                           
  1085                           ;main.c: 196:         SSPCONbits.SSPEN = 1;
  1086  0BF3  1694               	bsf	20,5	;volatile
  1087  0BF4                     l2086:
  1088                           
  1089                           ;main.c: 198:         SSPSTATbits.CKE = 1;
  1090  0BF4  1683               	bsf	3,5	;RP0=1, select bank1
  1091  0BF5  1303               	bcf	3,6	;RP1=0, select bank1
  1092  0BF6  1714               	bsf	20,6	;volatile
  1093  0BF7                     l2088:
  1094                           
  1095                           ;main.c: 199:         SSPSTATbits.SMP = 0;
  1096  0BF7  1394               	bcf	20,7	;volatile
  1097  0BF8                     l2090:
  1098                           
  1099                           ;main.c: 202:         TRISCbits.TRISC2 = 1;
  1100  0BF8  1507               	bsf	7,2	;volatile
  1101  0BF9                     l2092:
  1102                           
  1103                           ;main.c: 203:         PR2 = 62;
  1104  0BF9  303E               	movlw	62
  1105  0BFA  0092               	movwf	18	;volatile
  1106  0BFB                     l2094:
  1107                           
  1108                           ;main.c: 206:         CCP1CON = 0;
  1109  0BFB  1283               	bcf	3,5	;RP0=0, select bank0
  1110  0BFC  1303               	bcf	3,6	;RP1=0, select bank0
  1111  0BFD  0197               	clrf	23	;volatile
  1112                           
  1113                           ;main.c: 207:         CCP1CONbits.P1M = 0;
  1114  0BFE  303F               	movlw	-193
  1115  0BFF  0597               	andwf	23,f	;volatile
  1116                           
  1117                           ;main.c: 208:         CCP1CONbits.CCP1M = 0b1100;
  1118  0C00  0817               	movf	23,w	;volatile
  1119  0C01  39F0               	andlw	-16
  1120  0C02  380C               	iorlw	12
  1121  0C03  0097               	movwf	23	;volatile
  1122  0C04                     l2096:
  1123                           
  1124                           ;main.c: 210:         CCPR1L = 5>>2;
  1125  0C04  3001               	movlw	1
  1126  0C05  0095               	movwf	21	;volatile
  1127  0C06                     l2098:
  1128                           
  1129                           ;main.c: 211:         CCP1CONbits.DC1B = 5 & 0b11;
  1130  0C06  0817               	movf	23,w	;volatile
  1131  0C07  39CF               	andlw	-49
  1132  0C08  3810               	iorlw	16
  1133  0C09  0097               	movwf	23	;volatile
  1134  0C0A                     l2100:
  1135                           
  1136                           ;main.c: 213:         PIR1bits.TMR2IF = 0;
  1137  0C0A  108C               	bcf	12,1	;volatile
  1138  0C0B                     l2102:
  1139                           
  1140                           ;main.c: 214:         T2CONbits.T2CKPS = 0b11;
  1141  0C0B  3003               	movlw	3
  1142  0C0C  0492               	iorwf	18,f	;volatile
  1143  0C0D                     l2104:
  1144                           
  1145                           ;main.c: 215:         T2CONbits.TMR2ON = 1;
  1146  0C0D  1512               	bsf	18,2	;volatile
  1147  0C0E                     l2106:
  1148                           
  1149                           ;main.c: 216:         PIR1bits.TMR2IF = 0;
  1150  0C0E  108C               	bcf	12,1	;volatile
  1151  0C0F                     l2108:
  1152                           
  1153                           ;main.c: 218:         TRISCbits.TRISC2 = 0;
  1154  0C0F  1683               	bsf	3,5	;RP0=1, select bank1
  1155  0C10  1303               	bcf	3,6	;RP1=0, select bank1
  1156  0C11  1107               	bcf	7,2	;volatile
  1157  0C12                     l2110:
  1158                           
  1159                           ;main.c: 221:         PIR1bits.SSPIF = 0;
  1160  0C12  1283               	bcf	3,5	;RP0=0, select bank0
  1161  0C13  1303               	bcf	3,6	;RP1=0, select bank0
  1162  0C14  118C               	bcf	12,3	;volatile
  1163  0C15                     l2112:
  1164                           
  1165                           ;main.c: 222:         PIE1bits.SSPIE = 1;
  1166  0C15  1683               	bsf	3,5	;RP0=1, select bank1
  1167  0C16  1303               	bcf	3,6	;RP1=0, select bank1
  1168  0C17  158C               	bsf	12,3	;volatile
  1169  0C18                     l2114:
  1170                           
  1171                           ;main.c: 223:         INTCONbits.PEIE = 1;
  1172  0C18  170B               	bsf	11,6	;volatile
  1173  0C19                     l2116:
  1174                           
  1175                           ;main.c: 224:         INTCONbits.GIE = 1;
  1176  0C19  178B               	bsf	11,7	;volatile
  1177  0C1A                     l2118:
  1178                           
  1179                           ;main.c: 225:         INTCONbits.RBIE = 1;
  1180  0C1A  158B               	bsf	11,3	;volatile
  1181  0C1B                     l2120:
  1182                           
  1183                           ;main.c: 226:         IOCB = 0b00000011;
  1184  0C1B  3003               	movlw	3
  1185  0C1C  0096               	movwf	22	;volatile
  1186  0C1D                     l2122:
  1187                           
  1188                           ;main.c: 227:         INTCONbits.RBIF = 0;
  1189  0C1D  100B               	bcf	11,0	;volatile
  1190  0C1E                     l117:
  1191  0C1E  0008               	return
  1192  0C1F                     __end_of_setup:
  1193                           
  1194                           	psect	text2
  1195  0CB1                     __ptext2:	
  1196 ;; *************** function _map *****************
  1197 ;; Defined at:
  1198 ;;		line 231 in file "main.c"
  1199 ;; Parameters:    Size  Location     Type
  1200 ;;  x               1    wreg     unsigned char 
  1201 ;;  x0              1   13[BANK1 ] unsigned char 
  1202 ;;  x1              1   14[BANK1 ] unsigned char 
  1203 ;;  y0              2   15[BANK1 ] unsigned short 
  1204 ;;  y1              2   17[BANK1 ] unsigned short 
  1205 ;; Auto vars:     Size  Location     Type
  1206 ;;  x               1    7[COMMON] unsigned char 
  1207 ;; Return value:  Size  Location     Type
  1208 ;;                  2   13[BANK1 ] unsigned short 
  1209 ;; Registers used:
  1210 ;;		wreg, status,2, status,0, btemp+1, pclath, cstack
  1211 ;; Tracked objects:
  1212 ;;		On entry : 0/0
  1213 ;;		On exit  : 0/0
  1214 ;;		Unchanged: 0/0
  1215 ;; Data sizes:     COMMON   BANK0   BANK1   BANK3   BANK2
  1216 ;;      Params:         0       0       6       0       0
  1217 ;;      Locals:         1       0       0       0       0
  1218 ;;      Temps:          0       0       0       0       0
  1219 ;;      Totals:         1       0       6       0       0
  1220 ;;Total ram usage:        7 bytes
  1221 ;; Hardware stack levels used: 1
  1222 ;; Hardware stack levels required when called: 3
  1223 ;; This function calls:
  1224 ;;		___fladd
  1225 ;;		___fldiv
  1226 ;;		___flmul
  1227 ;;		___fltol
  1228 ;;		___xxtofl
  1229 ;; This function is called by:
  1230 ;;		_main
  1231 ;; This function uses a non-reentrant model
  1232 ;;
  1233                           
  1234  0CB1                     _map:	
  1235                           ;psect for function _map
  1236                           
  1237                           
  1238                           ;incstack = 0
  1239                           ; Regs used in _map: [wreg+status,2+status,0+btemp+1+pclath+cstack]
  1240                           ;map@x stored from wreg
  1241  0CB1  00F7               	movwf	map@x
  1242  0CB2                     l2758:
  1243                           
  1244                           ;main.c: 231: unsigned short map(uint8_t x, uint8_t x0, uint8_t x1,;main.c: 232:        
      +                               unsigned short y0, unsigned short y1){;main.c: 233:     return (unsigned short)(y0+
      +                          ((float)(y1-y0)/(x1-x0))*(x-x0));
  1245  0CB2  1683               	bsf	3,5	;RP0=1, select bank1
  1246  0CB3  1303               	bcf	3,6	;RP1=0, select bank1
  1247  0CB4  082F               	movf	map@y0^(0+128),w
  1248  0CB5  00F3               	movwf	___xxtofl@val
  1249  0CB6  0830               	movf	(map@y0+1)^(0+128),w
  1250  0CB7  00F4               	movwf	___xxtofl@val+1
  1251  0CB8  01F5               	clrf	___xxtofl@val+2
  1252  0CB9  01F6               	clrf	___xxtofl@val+3
  1253  0CBA  3000               	movlw	0
  1254  0CBB  120A  158A  2567  120A  158A  	fcall	___xxtofl
  1255  0CC0  0876               	movf	?___xxtofl+3,w
  1256  0CC1  1283               	bcf	3,5	;RP0=0, select bank0
  1257  0CC2  1303               	bcf	3,6	;RP1=0, select bank0
  1258  0CC3  00E5               	movwf	___fladd@a+3
  1259  0CC4  0875               	movf	?___xxtofl+2,w
  1260  0CC5  00E4               	movwf	___fladd@a+2
  1261  0CC6  0874               	movf	?___xxtofl+1,w
  1262  0CC7  00E3               	movwf	___fladd@a+1
  1263  0CC8  0873               	movf	?___xxtofl,w
  1264  0CC9  00E2               	movwf	___fladd@a
  1265  0CCA  1683               	bsf	3,5	;RP0=1, select bank1
  1266  0CCB  1303               	bcf	3,6	;RP1=0, select bank1
  1267  0CCC  082F               	movf	map@y0^(0+128),w
  1268  0CCD  0231               	subwf	map@y1^(0+128),w
  1269  0CCE  00F3               	movwf	___xxtofl@val
  1270  0CCF  0830               	movf	(map@y0+1)^(0+128),w
  1271  0CD0  1C03               	skipc
  1272  0CD1  0A30               	incf	(map@y0+1)^(0+128),w
  1273  0CD2  0232               	subwf	(map@y1+1)^(0+128),w
  1274  0CD3  00F4               	movwf	___xxtofl@val+1
  1275  0CD4  01F5               	clrf	___xxtofl@val+2
  1276  0CD5  01F6               	clrf	___xxtofl@val+3
  1277  0CD6  3000               	movlw	0
  1278  0CD7  120A  158A  2567  120A  158A  	fcall	___xxtofl
  1279  0CDC  0876               	movf	?___xxtofl+3,w
  1280  0CDD  1283               	bcf	3,5	;RP0=0, select bank0
  1281  0CDE  1303               	bcf	3,6	;RP1=0, select bank0
  1282  0CDF  00B1               	movwf	___fldiv@b+3
  1283  0CE0  0875               	movf	?___xxtofl+2,w
  1284  0CE1  00B0               	movwf	___fldiv@b+2
  1285  0CE2  0874               	movf	?___xxtofl+1,w
  1286  0CE3  00AF               	movwf	___fldiv@b+1
  1287  0CE4  0873               	movf	?___xxtofl,w
  1288  0CE5  00AE               	movwf	___fldiv@b
  1289  0CE6  1683               	bsf	3,5	;RP0=1, select bank1
  1290  0CE7  1303               	bcf	3,6	;RP1=0, select bank1
  1291  0CE8  082D               	movf	map@x0^(0+128),w
  1292  0CE9  022E               	subwf	map@x1^(0+128),w
  1293  0CEA  00F3               	movwf	___xxtofl@val
  1294  0CEB  01F4               	clrf	___xxtofl@val+1
  1295  0CEC  1C03               	skipc
  1296  0CED  03F4               	decf	___xxtofl@val+1,f
  1297  0CEE  01F5               	clrf	___xxtofl@val+2
  1298  0CEF  1BF4               	btfsc	___xxtofl@val+1,7
  1299  0CF0  03F5               	decf	___xxtofl@val+2,f
  1300  0CF1  0875               	movf	___xxtofl@val+2,w
  1301  0CF2  00F6               	movwf	___xxtofl@val+3
  1302  0CF3  3001               	movlw	1
  1303  0CF4  120A  158A  2567  120A  158A  	fcall	___xxtofl
  1304  0CF9  0876               	movf	?___xxtofl+3,w
  1305  0CFA  1283               	bcf	3,5	;RP0=0, select bank0
  1306  0CFB  1303               	bcf	3,6	;RP1=0, select bank0
  1307  0CFC  00AD               	movwf	___fldiv@a+3
  1308  0CFD  0875               	movf	?___xxtofl+2,w
  1309  0CFE  00AC               	movwf	___fldiv@a+2
  1310  0CFF  0874               	movf	?___xxtofl+1,w
  1311  0D00  00AB               	movwf	___fldiv@a+1
  1312  0D01  0873               	movf	?___xxtofl,w
  1313  0D02  00AA               	movwf	___fldiv@a
  1314  0D03  120A  158A  2623  120A  158A  	fcall	___fldiv
  1315  0D08  1283               	bcf	3,5	;RP0=0, select bank0
  1316  0D09  1303               	bcf	3,6	;RP1=0, select bank0
  1317  0D0A  082D               	movf	?___fldiv+3,w
  1318  0D0B  00CB               	movwf	___flmul@a+3
  1319  0D0C  082C               	movf	?___fldiv+2,w
  1320  0D0D  00CA               	movwf	___flmul@a+2
  1321  0D0E  082B               	movf	?___fldiv+1,w
  1322  0D0F  00C9               	movwf	___flmul@a+1
  1323  0D10  082A               	movf	?___fldiv,w
  1324  0D11  00C8               	movwf	___flmul@a
  1325  0D12  1683               	bsf	3,5	;RP0=1, select bank1
  1326  0D13  1303               	bcf	3,6	;RP1=0, select bank1
  1327  0D14  082D               	movf	map@x0^(0+128),w
  1328  0D15  0277               	subwf	map@x,w
  1329  0D16  00F3               	movwf	___xxtofl@val
  1330  0D17  01F4               	clrf	___xxtofl@val+1
  1331  0D18  1C03               	skipc
  1332  0D19  03F4               	decf	___xxtofl@val+1,f
  1333  0D1A  01F5               	clrf	___xxtofl@val+2
  1334  0D1B  1BF4               	btfsc	___xxtofl@val+1,7
  1335  0D1C  03F5               	decf	___xxtofl@val+2,f
  1336  0D1D  0875               	movf	___xxtofl@val+2,w
  1337  0D1E  00F6               	movwf	___xxtofl@val+3
  1338  0D1F  3001               	movlw	1
  1339  0D20  120A  158A  2567  120A  158A  	fcall	___xxtofl
  1340  0D25  0876               	movf	?___xxtofl+3,w
  1341  0D26  1283               	bcf	3,5	;RP0=0, select bank0
  1342  0D27  1303               	bcf	3,6	;RP1=0, select bank0
  1343  0D28  00C7               	movwf	___flmul@b+3
  1344  0D29  0875               	movf	?___xxtofl+2,w
  1345  0D2A  00C6               	movwf	___flmul@b+2
  1346  0D2B  0874               	movf	?___xxtofl+1,w
  1347  0D2C  00C5               	movwf	___flmul@b+1
  1348  0D2D  0873               	movf	?___xxtofl,w
  1349  0D2E  00C4               	movwf	___flmul@b
  1350  0D2F  120A  118A  2023  120A  158A  	fcall	___flmul
  1351  0D34  1283               	bcf	3,5	;RP0=0, select bank0
  1352  0D35  1303               	bcf	3,6	;RP1=0, select bank0
  1353  0D36  0847               	movf	?___flmul+3,w
  1354  0D37  00E1               	movwf	___fladd@b+3
  1355  0D38  0846               	movf	?___flmul+2,w
  1356  0D39  00E0               	movwf	___fladd@b+2
  1357  0D3A  0845               	movf	?___flmul+1,w
  1358  0D3B  00DF               	movwf	___fladd@b+1
  1359  0D3C  0844               	movf	?___flmul,w
  1360  0D3D  00DE               	movwf	___fladd@b
  1361  0D3E  120A  118A  2384  120A  158A  	fcall	___fladd
  1362  0D43  1283               	bcf	3,5	;RP0=0, select bank0
  1363  0D44  1303               	bcf	3,6	;RP1=0, select bank0
  1364  0D45  0861               	movf	?___fladd+3,w
  1365  0D46  1683               	bsf	3,5	;RP0=1, select bank1
  1366  0D47  1303               	bcf	3,6	;RP1=0, select bank1
  1367  0D48  00A7               	movwf	(___fltol@f1+3)^(0+128)
  1368  0D49  1283               	bcf	3,5	;RP0=0, select bank0
  1369  0D4A  1303               	bcf	3,6	;RP1=0, select bank0
  1370  0D4B  0860               	movf	?___fladd+2,w
  1371  0D4C  1683               	bsf	3,5	;RP0=1, select bank1
  1372  0D4D  1303               	bcf	3,6	;RP1=0, select bank1
  1373  0D4E  00A6               	movwf	(___fltol@f1+2)^(0+128)
  1374  0D4F  1283               	bcf	3,5	;RP0=0, select bank0
  1375  0D50  1303               	bcf	3,6	;RP1=0, select bank0
  1376  0D51  085F               	movf	?___fladd+1,w
  1377  0D52  1683               	bsf	3,5	;RP0=1, select bank1
  1378  0D53  1303               	bcf	3,6	;RP1=0, select bank1
  1379  0D54  00A5               	movwf	(___fltol@f1+1)^(0+128)
  1380  0D55  1283               	bcf	3,5	;RP0=0, select bank0
  1381  0D56  1303               	bcf	3,6	;RP1=0, select bank0
  1382  0D57  085E               	movf	?___fladd,w
  1383  0D58  1683               	bsf	3,5	;RP0=1, select bank1
  1384  0D59  1303               	bcf	3,6	;RP1=0, select bank1
  1385  0D5A  00A4               	movwf	___fltol@f1^(0+128)
  1386  0D5B  120A  158A  241F  120A  158A  	fcall	___fltol
  1387  0D60  1683               	bsf	3,5	;RP0=1, select bank1
  1388  0D61  1303               	bcf	3,6	;RP1=0, select bank1
  1389  0D62  0825               	movf	(?___fltol+1)^(0+128),w
  1390  0D63  00AE               	movwf	(?_map+1)^(0+128)
  1391  0D64  0824               	movf	?___fltol^(0+128),w
  1392  0D65  00AD               	movwf	?_map^(0+128)
  1393  0D66                     l120:
  1394  0D66  0008               	return
  1395  0D67                     __end_of_map:
  1396                           
  1397                           	psect	text3
  1398  0D67                     __ptext3:	
  1399 ;; *************** function ___xxtofl *****************
  1400 ;; Defined at:
  1401 ;;		line 10 in file "C:\Program Files\Microchip\xc8\v2.35\pic\sources\c90\common\xxtofl.c"
  1402 ;; Parameters:    Size  Location     Type
  1403 ;;  sign            1    wreg     unsigned char 
  1404 ;;  val             4    3[COMMON] long 
  1405 ;; Auto vars:     Size  Location     Type
  1406 ;;  sign            1    4[BANK0 ] unsigned char 
  1407 ;;  arg             4    6[BANK0 ] unsigned long 
  1408 ;;  exp             1    5[BANK0 ] unsigned char 
  1409 ;; Return value:  Size  Location     Type
  1410 ;;                  4    3[COMMON] unsigned char 
  1411 ;; Registers used:
  1412 ;;		wreg, status,2, status,0
  1413 ;; Tracked objects:
  1414 ;;		On entry : 0/0
  1415 ;;		On exit  : 0/0
  1416 ;;		Unchanged: 0/0
  1417 ;; Data sizes:     COMMON   BANK0   BANK1   BANK3   BANK2
  1418 ;;      Params:         4       0       0       0       0
  1419 ;;      Locals:         0       6       0       0       0
  1420 ;;      Temps:          0       4       0       0       0
  1421 ;;      Totals:         4      10       0       0       0
  1422 ;;Total ram usage:       14 bytes
  1423 ;; Hardware stack levels used: 1
  1424 ;; Hardware stack levels required when called: 1
  1425 ;; This function calls:
  1426 ;;		Nothing
  1427 ;; This function is called by:
  1428 ;;		_map
  1429 ;; This function uses a non-reentrant model
  1430 ;;
  1431                           
  1432  0D67                     ___xxtofl:	
  1433                           ;psect for function ___xxtofl
  1434                           
  1435                           
  1436                           ;incstack = 0
  1437                           ; Regs used in ___xxtofl: [wreg+status,2+status,0]
  1438                           ;___xxtofl@sign stored from wreg
  1439  0D67  1283               	bcf	3,5	;RP0=0, select bank0
  1440  0D68  1303               	bcf	3,6	;RP1=0, select bank0
  1441  0D69  00A4               	movwf	___xxtofl@sign
  1442  0D6A                     l2714:
  1443  0D6A  0824               	movf	___xxtofl@sign,w
  1444  0D6B  1903               	btfsc	3,2
  1445  0D6C  2D6E               	goto	u4301
  1446  0D6D  2D6F               	goto	u4300
  1447  0D6E                     u4301:
  1448  0D6E  2D83               	goto	l2720
  1449  0D6F                     u4300:
  1450  0D6F                     l2716:
  1451  0D6F  1FF6               	btfss	___xxtofl@val+3,7
  1452  0D70  2D72               	goto	u4311
  1453  0D71  2D73               	goto	u4310
  1454  0D72                     u4311:
  1455  0D72  2D83               	goto	l2720
  1456  0D73                     u4310:
  1457  0D73                     l2718:
  1458  0D73  0973               	comf	___xxtofl@val,w
  1459  0D74  00A6               	movwf	___xxtofl@arg
  1460  0D75  0974               	comf	___xxtofl@val+1,w
  1461  0D76  00A7               	movwf	___xxtofl@arg+1
  1462  0D77  0975               	comf	___xxtofl@val+2,w
  1463  0D78  00A8               	movwf	___xxtofl@arg+2
  1464  0D79  0976               	comf	___xxtofl@val+3,w
  1465  0D7A  00A9               	movwf	___xxtofl@arg+3
  1466  0D7B  0AA6               	incf	___xxtofl@arg,f
  1467  0D7C  1903               	skipnz
  1468  0D7D  0AA7               	incf	___xxtofl@arg+1,f
  1469  0D7E  1903               	skipnz
  1470  0D7F  0AA8               	incf	___xxtofl@arg+2,f
  1471  0D80  1903               	skipnz
  1472  0D81  0AA9               	incf	___xxtofl@arg+3,f
  1473  0D82  2D8B               	goto	l639
  1474  0D83                     l2720:
  1475  0D83  0876               	movf	___xxtofl@val+3,w
  1476  0D84  00A9               	movwf	___xxtofl@arg+3
  1477  0D85  0875               	movf	___xxtofl@val+2,w
  1478  0D86  00A8               	movwf	___xxtofl@arg+2
  1479  0D87  0874               	movf	___xxtofl@val+1,w
  1480  0D88  00A7               	movwf	___xxtofl@arg+1
  1481  0D89  0873               	movf	___xxtofl@val,w
  1482  0D8A  00A6               	movwf	___xxtofl@arg
  1483  0D8B                     l639:
  1484  0D8B  0876               	movf	___xxtofl@val+3,w
  1485  0D8C  0475               	iorwf	___xxtofl@val+2,w
  1486  0D8D  0474               	iorwf	___xxtofl@val+1,w
  1487  0D8E  0473               	iorwf	___xxtofl@val,w
  1488  0D8F  1D03               	skipz
  1489  0D90  2D92               	goto	u4321
  1490  0D91  2D93               	goto	u4320
  1491  0D92                     u4321:
  1492  0D92  2D9C               	goto	l2726
  1493  0D93                     u4320:
  1494  0D93                     l2722:
  1495  0D93  3000               	movlw	0
  1496  0D94  00F6               	movwf	?___xxtofl+3
  1497  0D95  3000               	movlw	0
  1498  0D96  00F5               	movwf	?___xxtofl+2
  1499  0D97  3000               	movlw	0
  1500  0D98  00F4               	movwf	?___xxtofl+1
  1501  0D99  3000               	movlw	0
  1502  0D9A  00F3               	movwf	?___xxtofl
  1503  0D9B  2E22               	goto	l641
  1504  0D9C                     l2726:
  1505  0D9C  3096               	movlw	150
  1506  0D9D  00A0               	movwf	??___xxtofl
  1507  0D9E  0820               	movf	??___xxtofl,w
  1508  0D9F  00A5               	movwf	___xxtofl@exp
  1509  0DA0  2DAE               	goto	l2730
  1510  0DA1                     l2728:
  1511  0DA1  3001               	movlw	1
  1512  0DA2  00A0               	movwf	??___xxtofl
  1513  0DA3  0820               	movf	??___xxtofl,w
  1514  0DA4  07A5               	addwf	___xxtofl@exp,f
  1515  0DA5  3001               	movlw	1
  1516  0DA6                     u4335:
  1517  0DA6  1003               	clrc
  1518  0DA7  0CA9               	rrf	___xxtofl@arg+3,f
  1519  0DA8  0CA8               	rrf	___xxtofl@arg+2,f
  1520  0DA9  0CA7               	rrf	___xxtofl@arg+1,f
  1521  0DAA  0CA6               	rrf	___xxtofl@arg,f
  1522  0DAB  3EFF               	addlw	-1
  1523  0DAC  1D03               	skipz
  1524  0DAD  2DA6               	goto	u4335
  1525  0DAE                     l2730:
  1526  0DAE  30FE               	movlw	254
  1527  0DAF  0529               	andwf	___xxtofl@arg+3,w
  1528  0DB0  1D03               	btfss	3,2
  1529  0DB1  2DB3               	goto	u4341
  1530  0DB2  2DB4               	goto	u4340
  1531  0DB3                     u4341:
  1532  0DB3  2DA1               	goto	l2728
  1533  0DB4                     u4340:
  1534  0DB4  2DD0               	goto	l645
  1535  0DB5                     l2732:
  1536  0DB5  3001               	movlw	1
  1537  0DB6  00A0               	movwf	??___xxtofl
  1538  0DB7  0820               	movf	??___xxtofl,w
  1539  0DB8  07A5               	addwf	___xxtofl@exp,f
  1540  0DB9                     l2734:
  1541  0DB9  3001               	movlw	1
  1542  0DBA  07A6               	addwf	___xxtofl@arg,f
  1543  0DBB  3000               	movlw	0
  1544  0DBC  1803               	skipnc
  1545  0DBD  3001               	movlw	1
  1546  0DBE  07A7               	addwf	___xxtofl@arg+1,f
  1547  0DBF  3000               	movlw	0
  1548  0DC0  1803               	skipnc
  1549  0DC1  3001               	movlw	1
  1550  0DC2  07A8               	addwf	___xxtofl@arg+2,f
  1551  0DC3  3000               	movlw	0
  1552  0DC4  1803               	skipnc
  1553  0DC5  3001               	movlw	1
  1554  0DC6  07A9               	addwf	___xxtofl@arg+3,f
  1555  0DC7                     l2736:
  1556  0DC7  3001               	movlw	1
  1557  0DC8                     u4355:
  1558  0DC8  1003               	clrc
  1559  0DC9  0CA9               	rrf	___xxtofl@arg+3,f
  1560  0DCA  0CA8               	rrf	___xxtofl@arg+2,f
  1561  0DCB  0CA7               	rrf	___xxtofl@arg+1,f
  1562  0DCC  0CA6               	rrf	___xxtofl@arg,f
  1563  0DCD  3EFF               	addlw	-1
  1564  0DCE  1D03               	skipz
  1565  0DCF  2DC8               	goto	u4355
  1566  0DD0                     l645:
  1567  0DD0  30FF               	movlw	255
  1568  0DD1  0529               	andwf	___xxtofl@arg+3,w
  1569  0DD2  1D03               	btfss	3,2
  1570  0DD3  2DD5               	goto	u4361
  1571  0DD4  2DD6               	goto	u4360
  1572  0DD5                     u4361:
  1573  0DD5  2DB5               	goto	l2732
  1574  0DD6                     u4360:
  1575  0DD6  2DE2               	goto	l2740
  1576  0DD7                     l2738:
  1577  0DD7  3001               	movlw	1
  1578  0DD8  02A5               	subwf	___xxtofl@exp,f
  1579  0DD9  3001               	movlw	1
  1580  0DDA  00A0               	movwf	??___xxtofl
  1581  0DDB                     u4375:
  1582  0DDB  1003               	clrc
  1583  0DDC  0DA6               	rlf	___xxtofl@arg,f
  1584  0DDD  0DA7               	rlf	___xxtofl@arg+1,f
  1585  0DDE  0DA8               	rlf	___xxtofl@arg+2,f
  1586  0DDF  0DA9               	rlf	___xxtofl@arg+3,f
  1587  0DE0  0BA0               	decfsz	??___xxtofl,f
  1588  0DE1  2DDB               	goto	u4375
  1589  0DE2                     l2740:
  1590  0DE2  1BA8               	btfsc	___xxtofl@arg+2,7
  1591  0DE3  2DE5               	goto	u4381
  1592  0DE4  2DE6               	goto	u4380
  1593  0DE5                     u4381:
  1594  0DE5  2DEC               	goto	l652
  1595  0DE6                     u4380:
  1596  0DE6                     l2742:
  1597  0DE6  3002               	movlw	2
  1598  0DE7  0225               	subwf	___xxtofl@exp,w
  1599  0DE8  1803               	skipnc
  1600  0DE9  2DEB               	goto	u4391
  1601  0DEA  2DEC               	goto	u4390
  1602  0DEB                     u4391:
  1603  0DEB  2DD7               	goto	l2738
  1604  0DEC                     u4390:
  1605  0DEC                     l652:
  1606  0DEC  1825               	btfsc	___xxtofl@exp,0
  1607  0DED  2DEF               	goto	u4401
  1608  0DEE  2DF0               	goto	u4400
  1609  0DEF                     u4401:
  1610  0DEF  2DF8               	goto	l653
  1611  0DF0                     u4400:
  1612  0DF0                     l2744:
  1613  0DF0  30FF               	movlw	255
  1614  0DF1  05A6               	andwf	___xxtofl@arg,f
  1615  0DF2  30FF               	movlw	255
  1616  0DF3  05A7               	andwf	___xxtofl@arg+1,f
  1617  0DF4  307F               	movlw	127
  1618  0DF5  05A8               	andwf	___xxtofl@arg+2,f
  1619  0DF6  30FF               	movlw	255
  1620  0DF7  05A9               	andwf	___xxtofl@arg+3,f
  1621  0DF8                     l653:
  1622  0DF8  1003               	clrc
  1623  0DF9  0CA5               	rrf	___xxtofl@exp,f
  1624  0DFA                     l2746:
  1625  0DFA  0825               	movf	___xxtofl@exp,w
  1626  0DFB  00A0               	movwf	??___xxtofl
  1627  0DFC  01A1               	clrf	??___xxtofl+1
  1628  0DFD  01A2               	clrf	??___xxtofl+2
  1629  0DFE  01A3               	clrf	??___xxtofl+3
  1630  0DFF  3018               	movlw	24
  1631  0E00                     u4415:
  1632  0E00  1003               	clrc
  1633  0E01  0DA0               	rlf	??___xxtofl,f
  1634  0E02  0DA1               	rlf	??___xxtofl+1,f
  1635  0E03  0DA2               	rlf	??___xxtofl+2,f
  1636  0E04  0DA3               	rlf	??___xxtofl+3,f
  1637  0E05                     u4410:
  1638  0E05  3EFF               	addlw	-1
  1639  0E06  1D03               	skipz
  1640  0E07  2E00               	goto	u4415
  1641  0E08  0820               	movf	??___xxtofl,w
  1642  0E09  04A6               	iorwf	___xxtofl@arg,f
  1643  0E0A  0821               	movf	??___xxtofl+1,w
  1644  0E0B  04A7               	iorwf	___xxtofl@arg+1,f
  1645  0E0C  0822               	movf	??___xxtofl+2,w
  1646  0E0D  04A8               	iorwf	___xxtofl@arg+2,f
  1647  0E0E  0823               	movf	??___xxtofl+3,w
  1648  0E0F  04A9               	iorwf	___xxtofl@arg+3,f
  1649  0E10                     l2748:
  1650  0E10  0824               	movf	___xxtofl@sign,w
  1651  0E11  1903               	btfsc	3,2
  1652  0E12  2E14               	goto	u4421
  1653  0E13  2E15               	goto	u4420
  1654  0E14                     u4421:
  1655  0E14  2E1A               	goto	l2754
  1656  0E15                     u4420:
  1657  0E15                     l2750:
  1658  0E15  1FF6               	btfss	___xxtofl@val+3,7
  1659  0E16  2E18               	goto	u4431
  1660  0E17  2E19               	goto	u4430
  1661  0E18                     u4431:
  1662  0E18  2E1A               	goto	l2754
  1663  0E19                     u4430:
  1664  0E19                     l2752:
  1665  0E19  17A9               	bsf	___xxtofl@arg+3,7
  1666  0E1A                     l2754:
  1667  0E1A  0829               	movf	___xxtofl@arg+3,w
  1668  0E1B  00F6               	movwf	?___xxtofl+3
  1669  0E1C  0828               	movf	___xxtofl@arg+2,w
  1670  0E1D  00F5               	movwf	?___xxtofl+2
  1671  0E1E  0827               	movf	___xxtofl@arg+1,w
  1672  0E1F  00F4               	movwf	?___xxtofl+1
  1673  0E20  0826               	movf	___xxtofl@arg,w
  1674  0E21  00F3               	movwf	?___xxtofl
  1675  0E22                     l641:
  1676  0E22  0008               	return
  1677  0E23                     __end_of___xxtofl:
  1678                           
  1679                           	psect	text4
  1680  0C1F                     __ptext4:	
  1681 ;; *************** function ___fltol *****************
  1682 ;; Defined at:
  1683 ;;		line 43 in file "C:\Program Files\Microchip\xc8\v2.35\pic\sources\c90\common\fltol.c"
  1684 ;; Parameters:    Size  Location     Type
  1685 ;;  f1              4    4[BANK1 ] unsigned char 
  1686 ;; Auto vars:     Size  Location     Type
  1687 ;;  exp1            1   79[BANK0 ] unsigned char 
  1688 ;;  sign1           1   78[BANK0 ] unsigned char 
  1689 ;; Return value:  Size  Location     Type
  1690 ;;                  4    4[BANK1 ] long 
  1691 ;; Registers used:
  1692 ;;		wreg, status,2, status,0
  1693 ;; Tracked objects:
  1694 ;;		On entry : 0/0
  1695 ;;		On exit  : 0/0
  1696 ;;		Unchanged: 0/0
  1697 ;; Data sizes:     COMMON   BANK0   BANK1   BANK3   BANK2
  1698 ;;      Params:         0       0       4       0       0
  1699 ;;      Locals:         0       2       0       0       0
  1700 ;;      Temps:          0       0       5       0       0
  1701 ;;      Totals:         0       2       9       0       0
  1702 ;;Total ram usage:       11 bytes
  1703 ;; Hardware stack levels used: 1
  1704 ;; Hardware stack levels required when called: 1
  1705 ;; This function calls:
  1706 ;;		Nothing
  1707 ;; This function is called by:
  1708 ;;		_map
  1709 ;; This function uses a non-reentrant model
  1710 ;;
  1711                           
  1712  0C1F                     ___fltol:	
  1713                           ;psect for function ___fltol
  1714                           
  1715  0C1F                     l2202:	
  1716                           ;incstack = 0
  1717                           ; Regs used in ___fltol: [wreg+status,2+status,0]
  1718                           
  1719  0C1F  1003               	clrc
  1720  0C20  1683               	bsf	3,5	;RP0=1, select bank1
  1721  0C21  1303               	bcf	3,6	;RP1=0, select bank1
  1722  0C22  0D26               	rlf	(___fltol@f1+2)^(0+128),w
  1723  0C23  0D27               	rlf	(___fltol@f1+3)^(0+128),w
  1724  0C24  00A8               	movwf	??___fltol^(0+128)
  1725  0C25  0828               	movf	??___fltol^(0+128),w
  1726  0C26  1283               	bcf	3,5	;RP0=0, select bank0
  1727  0C27  1303               	bcf	3,6	;RP1=0, select bank0
  1728  0C28  00EF               	movwf	___fltol@exp1
  1729  0C29  086F               	movf	___fltol@exp1,w
  1730  0C2A  1D03               	btfss	3,2
  1731  0C2B  2C2D               	goto	u3081
  1732  0C2C  2C2E               	goto	u3080
  1733  0C2D                     u3081:
  1734  0C2D  2C39               	goto	l2208
  1735  0C2E                     u3080:
  1736  0C2E                     l2204:
  1737  0C2E  3000               	movlw	0
  1738  0C2F  1683               	bsf	3,5	;RP0=1, select bank1
  1739  0C30  1303               	bcf	3,6	;RP1=0, select bank1
  1740  0C31  00A7               	movwf	(?___fltol+3)^(0+128)
  1741  0C32  3000               	movlw	0
  1742  0C33  00A6               	movwf	(?___fltol+2)^(0+128)
  1743  0C34  3000               	movlw	0
  1744  0C35  00A5               	movwf	(?___fltol+1)^(0+128)
  1745  0C36  3000               	movlw	0
  1746  0C37  00A4               	movwf	?___fltol^(0+128)
  1747  0C38  2CB0               	goto	l392
  1748  0C39                     l2208:
  1749  0C39  1683               	bsf	3,5	;RP0=1, select bank1
  1750  0C3A  1303               	bcf	3,6	;RP1=0, select bank1
  1751  0C3B  0824               	movf	___fltol@f1^(0+128),w
  1752  0C3C  00A8               	movwf	??___fltol^(0+128)
  1753  0C3D  0825               	movf	(___fltol@f1+1)^(0+128),w
  1754  0C3E  00A9               	movwf	(??___fltol^(0+128)+1)
  1755  0C3F  0826               	movf	(___fltol@f1+2)^(0+128),w
  1756  0C40  00AA               	movwf	(??___fltol^(0+128)+2)
  1757  0C41  0827               	movf	(___fltol@f1+3)^(0+128),w
  1758  0C42  00AB               	movwf	(??___fltol^(0+128)+3)
  1759  0C43  301F               	movlw	31
  1760  0C44                     u3095:
  1761  0C44  1003               	clrc
  1762  0C45  0CAB               	rrf	(??___fltol^(0+128)+3),f
  1763  0C46  0CAA               	rrf	(??___fltol^(0+128)+2),f
  1764  0C47  0CA9               	rrf	(??___fltol^(0+128)+1),f
  1765  0C48  0CA8               	rrf	??___fltol^(0+128),f
  1766  0C49                     u3090:
  1767  0C49  3EFF               	addlw	-1
  1768  0C4A  1D03               	skipz
  1769  0C4B  2C44               	goto	u3095
  1770  0C4C  0828               	movf	??___fltol^(0+128),w
  1771  0C4D  00AC               	movwf	(??___fltol+4)^(0+128)
  1772  0C4E  082C               	movf	(??___fltol+4)^(0+128),w
  1773  0C4F  1283               	bcf	3,5	;RP0=0, select bank0
  1774  0C50  1303               	bcf	3,6	;RP1=0, select bank0
  1775  0C51  00EE               	movwf	___fltol@sign1
  1776  0C52                     l2210:
  1777  0C52  1683               	bsf	3,5	;RP0=1, select bank1
  1778  0C53  1303               	bcf	3,6	;RP1=0, select bank1
  1779  0C54  17A6               	bsf	(___fltol@f1^(0+128)+2),7
  1780  0C55                     l2212:
  1781  0C55  30FF               	movlw	255
  1782  0C56  05A4               	andwf	___fltol@f1^(0+128),f
  1783  0C57  30FF               	movlw	255
  1784  0C58  05A5               	andwf	(___fltol@f1+1)^(0+128),f
  1785  0C59  30FF               	movlw	255
  1786  0C5A  05A6               	andwf	(___fltol@f1+2)^(0+128),f
  1787  0C5B  3000               	movlw	0
  1788  0C5C  05A7               	andwf	(___fltol@f1+3)^(0+128),f
  1789  0C5D                     l2214:
  1790  0C5D  3096               	movlw	150
  1791  0C5E  1283               	bcf	3,5	;RP0=0, select bank0
  1792  0C5F  1303               	bcf	3,6	;RP1=0, select bank0
  1793  0C60  02EF               	subwf	___fltol@exp1,f
  1794  0C61                     l2216:
  1795  0C61  1FEF               	btfss	___fltol@exp1,7
  1796  0C62  2C64               	goto	u3101
  1797  0C63  2C65               	goto	u3100
  1798  0C64                     u3101:
  1799  0C64  2C83               	goto	l2226
  1800  0C65                     u3100:
  1801  0C65                     l2218:
  1802  0C65  086F               	movf	___fltol@exp1,w
  1803  0C66  3A80               	xorlw	128
  1804  0C67  3E97               	addlw	151
  1805  0C68  1803               	skipnc
  1806  0C69  2C6B               	goto	u3111
  1807  0C6A  2C6C               	goto	u3110
  1808  0C6B                     u3111:
  1809  0C6B  2C6D               	goto	l2224
  1810  0C6C                     u3110:
  1811  0C6C  2C2E               	goto	l2204
  1812  0C6D                     l2224:
  1813  0C6D  3001               	movlw	1
  1814  0C6E                     u3125:
  1815  0C6E  1003               	clrc
  1816  0C6F  1683               	bsf	3,5	;RP0=1, select bank1
  1817  0C70  1303               	bcf	3,6	;RP1=0, select bank1
  1818  0C71  0CA7               	rrf	(___fltol@f1+3)^(0+128),f
  1819  0C72  0CA6               	rrf	(___fltol@f1+2)^(0+128),f
  1820  0C73  0CA5               	rrf	(___fltol@f1+1)^(0+128),f
  1821  0C74  0CA4               	rrf	___fltol@f1^(0+128),f
  1822  0C75  3EFF               	addlw	-1
  1823  0C76  1D03               	skipz
  1824  0C77  2C6E               	goto	u3125
  1825  0C78  3001               	movlw	1
  1826  0C79  00A8               	movwf	??___fltol^(0+128)
  1827  0C7A  0828               	movf	??___fltol^(0+128),w
  1828  0C7B  1283               	bcf	3,5	;RP0=0, select bank0
  1829  0C7C  1303               	bcf	3,6	;RP1=0, select bank0
  1830  0C7D  07EF               	addwf	___fltol@exp1,f
  1831  0C7E  1D03               	btfss	3,2
  1832  0C7F  2C81               	goto	u3131
  1833  0C80  2C82               	goto	u3130
  1834  0C81                     u3131:
  1835  0C81  2C6D               	goto	l2224
  1836  0C82                     u3130:
  1837  0C82  2C9E               	goto	l2234
  1838  0C83                     l2226:
  1839  0C83  3020               	movlw	32
  1840  0C84  026F               	subwf	___fltol@exp1,w
  1841  0C85  1C03               	skipc
  1842  0C86  2C88               	goto	u3141
  1843  0C87  2C89               	goto	u3140
  1844  0C88                     u3141:
  1845  0C88  2C99               	goto	l399
  1846  0C89                     u3140:
  1847  0C89  2C2E               	goto	l2204
  1848  0C8A                     l2232:
  1849  0C8A  3001               	movlw	1
  1850  0C8B  1683               	bsf	3,5	;RP0=1, select bank1
  1851  0C8C  1303               	bcf	3,6	;RP1=0, select bank1
  1852  0C8D  00A8               	movwf	??___fltol^(0+128)
  1853  0C8E                     u3155:
  1854  0C8E  1003               	clrc
  1855  0C8F  0DA4               	rlf	___fltol@f1^(0+128),f
  1856  0C90  0DA5               	rlf	(___fltol@f1+1)^(0+128),f
  1857  0C91  0DA6               	rlf	(___fltol@f1+2)^(0+128),f
  1858  0C92  0DA7               	rlf	(___fltol@f1+3)^(0+128),f
  1859  0C93  0BA8               	decfsz	??___fltol^(0+128),f
  1860  0C94  2C8E               	goto	u3155
  1861  0C95  3001               	movlw	1
  1862  0C96  1283               	bcf	3,5	;RP0=0, select bank0
  1863  0C97  1303               	bcf	3,6	;RP1=0, select bank0
  1864  0C98  02EF               	subwf	___fltol@exp1,f
  1865  0C99                     l399:
  1866  0C99  086F               	movf	___fltol@exp1,w
  1867  0C9A  1D03               	btfss	3,2
  1868  0C9B  2C9D               	goto	u3161
  1869  0C9C  2C9E               	goto	u3160
  1870  0C9D                     u3161:
  1871  0C9D  2C8A               	goto	l2232
  1872  0C9E                     u3160:
  1873  0C9E                     l2234:
  1874  0C9E  086E               	movf	___fltol@sign1,w
  1875  0C9F  1903               	btfsc	3,2
  1876  0CA0  2CA2               	goto	u3171
  1877  0CA1  2CA3               	goto	u3170
  1878  0CA2                     u3171:
  1879  0CA2  2CB0               	goto	l402
  1880  0CA3                     u3170:
  1881  0CA3                     l2236:
  1882  0CA3  1683               	bsf	3,5	;RP0=1, select bank1
  1883  0CA4  1303               	bcf	3,6	;RP1=0, select bank1
  1884  0CA5  09A4               	comf	___fltol@f1^(0+128),f
  1885  0CA6  09A5               	comf	(___fltol@f1+1)^(0+128),f
  1886  0CA7  09A6               	comf	(___fltol@f1+2)^(0+128),f
  1887  0CA8  09A7               	comf	(___fltol@f1+3)^(0+128),f
  1888  0CA9  0AA4               	incf	___fltol@f1^(0+128),f
  1889  0CAA  1903               	skipnz
  1890  0CAB  0AA5               	incf	(___fltol@f1+1)^(0+128),f
  1891  0CAC  1903               	skipnz
  1892  0CAD  0AA6               	incf	(___fltol@f1+2)^(0+128),f
  1893  0CAE  1903               	skipnz
  1894  0CAF  0AA7               	incf	(___fltol@f1+3)^(0+128),f
  1895  0CB0                     l402:
  1896  0CB0                     l392:
  1897  0CB0  0008               	return
  1898  0CB1                     __end_of___fltol:
  1899                           
  1900                           	psect	text5
  1901  0023                     __ptext5:	
  1902 ;; *************** function ___flmul *****************
  1903 ;; Defined at:
  1904 ;;		line 8 in file "C:\Program Files\Microchip\xc8\v2.35\pic\sources\c90\common\sprcmul.c"
  1905 ;; Parameters:    Size  Location     Type
  1906 ;;  b               4   36[BANK0 ] long 
  1907 ;;  a               4   40[BANK0 ] long 
  1908 ;; Auto vars:     Size  Location     Type
  1909 ;;  prod            4   56[BANK0 ] struct .
  1910 ;;  grs             4   51[BANK0 ] unsigned long 
  1911 ;;  temp            2   60[BANK0 ] struct .
  1912 ;;  bexp            1   55[BANK0 ] unsigned char 
  1913 ;;  aexp            1   50[BANK0 ] unsigned char 
  1914 ;;  sign            1   49[BANK0 ] unsigned char 
  1915 ;; Return value:  Size  Location     Type
  1916 ;;                  4   36[BANK0 ] unsigned char 
  1917 ;; Registers used:
  1918 ;;		wreg, status,2, status,0, btemp+1, pclath, cstack
  1919 ;; Tracked objects:
  1920 ;;		On entry : 0/0
  1921 ;;		On exit  : 0/0
  1922 ;;		Unchanged: 0/0
  1923 ;; Data sizes:     COMMON   BANK0   BANK1   BANK3   BANK2
  1924 ;;      Params:         0       8       0       0       0
  1925 ;;      Locals:         0      13       0       0       0
  1926 ;;      Temps:          0       5       0       0       0
  1927 ;;      Totals:         0      26       0       0       0
  1928 ;;Total ram usage:       26 bytes
  1929 ;; Hardware stack levels used: 1
  1930 ;; Hardware stack levels required when called: 2
  1931 ;; This function calls:
  1932 ;;		__Umul8_16
  1933 ;; This function is called by:
  1934 ;;		_map
  1935 ;; This function uses a non-reentrant model
  1936 ;;
  1937                           
  1938  0023                     ___flmul:	
  1939                           ;psect for function ___flmul
  1940                           
  1941  0023                     l2574:	
  1942                           ;incstack = 0
  1943                           ; Regs used in ___flmul: [wreg+status,2+status,0+btemp+1+pclath+cstack]
  1944                           
  1945  0023  1283               	bcf	3,5	;RP0=0, select bank0
  1946  0024  1303               	bcf	3,6	;RP1=0, select bank0
  1947  0025  0847               	movf	___flmul@b+3,w
  1948  0026  3980               	andlw	128
  1949  0027  00CC               	movwf	??___flmul
  1950  0028  084C               	movf	??___flmul,w
  1951  0029  00D1               	movwf	___flmul@sign
  1952  002A                     l2576:
  1953  002A  0847               	movf	___flmul@b+3,w
  1954  002B  00CC               	movwf	??___flmul
  1955  002C  074C               	addwf	??___flmul,w
  1956  002D  00CD               	movwf	??___flmul+1
  1957  002E  084D               	movf	??___flmul+1,w
  1958  002F  00D7               	movwf	___flmul@bexp
  1959  0030                     l2578:
  1960  0030  1FC6               	btfss	___flmul@b+2,7
  1961  0031  2833               	goto	u3931
  1962  0032  2834               	goto	u3930
  1963  0033                     u3931:
  1964  0033  2835               	goto	l2582
  1965  0034                     u3930:
  1966  0034                     l2580:
  1967  0034  1457               	bsf	___flmul@bexp,0
  1968  0035                     l2582:
  1969  0035  0857               	movf	___flmul@bexp,w
  1970  0036  1903               	btfsc	3,2
  1971  0037  2839               	goto	u3941
  1972  0038  283A               	goto	u3940
  1973  0039                     u3941:
  1974  0039  2849               	goto	l2590
  1975  003A                     u3940:
  1976  003A                     l2584:
  1977  003A  0A57               	incf	___flmul@bexp,w
  1978  003B  1D03               	btfss	3,2
  1979  003C  283E               	goto	u3951
  1980  003D  283F               	goto	u3950
  1981  003E                     u3951:
  1982  003E  2847               	goto	l2588
  1983  003F                     u3950:
  1984  003F                     l2586:
  1985  003F  3000               	movlw	0
  1986  0040  00C7               	movwf	___flmul@b+3
  1987  0041  3000               	movlw	0
  1988  0042  00C6               	movwf	___flmul@b+2
  1989  0043  3000               	movlw	0
  1990  0044  00C5               	movwf	___flmul@b+1
  1991  0045  3000               	movlw	0
  1992  0046  00C4               	movwf	___flmul@b
  1993  0047                     l2588:
  1994  0047  17C6               	bsf	___flmul@b+2,7
  1995  0048  2851               	goto	l2592
  1996  0049                     l2590:
  1997  0049  3000               	movlw	0
  1998  004A  00C7               	movwf	___flmul@b+3
  1999  004B  3000               	movlw	0
  2000  004C  00C6               	movwf	___flmul@b+2
  2001  004D  3000               	movlw	0
  2002  004E  00C5               	movwf	___flmul@b+1
  2003  004F  3000               	movlw	0
  2004  0050  00C4               	movwf	___flmul@b
  2005  0051                     l2592:
  2006  0051  084B               	movf	___flmul@a+3,w
  2007  0052  3980               	andlw	128
  2008  0053  00CC               	movwf	??___flmul
  2009  0054  084C               	movf	??___flmul,w
  2010  0055  06D1               	xorwf	___flmul@sign,f
  2011  0056                     l2594:
  2012  0056  084B               	movf	___flmul@a+3,w
  2013  0057  00CC               	movwf	??___flmul
  2014  0058  074C               	addwf	??___flmul,w
  2015  0059  00CD               	movwf	??___flmul+1
  2016  005A  084D               	movf	??___flmul+1,w
  2017  005B  00D2               	movwf	___flmul@aexp
  2018  005C                     l2596:
  2019  005C  1FCA               	btfss	___flmul@a+2,7
  2020  005D  285F               	goto	u3961
  2021  005E  2860               	goto	u3960
  2022  005F                     u3961:
  2023  005F  2861               	goto	l2600
  2024  0060                     u3960:
  2025  0060                     l2598:
  2026  0060  1452               	bsf	___flmul@aexp,0
  2027  0061                     l2600:
  2028  0061  0852               	movf	___flmul@aexp,w
  2029  0062  1903               	btfsc	3,2
  2030  0063  2865               	goto	u3971
  2031  0064  2866               	goto	u3970
  2032  0065                     u3971:
  2033  0065  2875               	goto	l2608
  2034  0066                     u3970:
  2035  0066                     l2602:
  2036  0066  0A52               	incf	___flmul@aexp,w
  2037  0067  1D03               	btfss	3,2
  2038  0068  286A               	goto	u3981
  2039  0069  286B               	goto	u3980
  2040  006A                     u3981:
  2041  006A  2873               	goto	l2606
  2042  006B                     u3980:
  2043  006B                     l2604:
  2044  006B  3000               	movlw	0
  2045  006C  00CB               	movwf	___flmul@a+3
  2046  006D  3000               	movlw	0
  2047  006E  00CA               	movwf	___flmul@a+2
  2048  006F  3000               	movlw	0
  2049  0070  00C9               	movwf	___flmul@a+1
  2050  0071  3000               	movlw	0
  2051  0072  00C8               	movwf	___flmul@a
  2052  0073                     l2606:
  2053  0073  17CA               	bsf	___flmul@a+2,7
  2054  0074  287D               	goto	l2610
  2055  0075                     l2608:
  2056  0075  3000               	movlw	0
  2057  0076  00CB               	movwf	___flmul@a+3
  2058  0077  3000               	movlw	0
  2059  0078  00CA               	movwf	___flmul@a+2
  2060  0079  3000               	movlw	0
  2061  007A  00C9               	movwf	___flmul@a+1
  2062  007B  3000               	movlw	0
  2063  007C  00C8               	movwf	___flmul@a
  2064  007D                     l2610:
  2065  007D  0852               	movf	___flmul@aexp,w
  2066  007E  1903               	btfsc	3,2
  2067  007F  2881               	goto	u3991
  2068  0080  2882               	goto	u3990
  2069  0081                     u3991:
  2070  0081  2887               	goto	l2614
  2071  0082                     u3990:
  2072  0082                     l2612:
  2073  0082  0857               	movf	___flmul@bexp,w
  2074  0083  1D03               	btfss	3,2
  2075  0084  2886               	goto	u4001
  2076  0085  2887               	goto	u4000
  2077  0086                     u4001:
  2078  0086  2890               	goto	l2618
  2079  0087                     u4000:
  2080  0087                     l2614:
  2081  0087  3000               	movlw	0
  2082  0088  00C7               	movwf	?___flmul+3
  2083  0089  3000               	movlw	0
  2084  008A  00C6               	movwf	?___flmul+2
  2085  008B  3000               	movlw	0
  2086  008C  00C5               	movwf	?___flmul+1
  2087  008D  3000               	movlw	0
  2088  008E  00C4               	movwf	?___flmul
  2089  008F  2B83               	goto	l595
  2090  0090                     l2618:
  2091  0090  0844               	movf	___flmul@b,w
  2092  0091  00CC               	movwf	??___flmul
  2093  0092  084C               	movf	??___flmul,w
  2094  0093  00F3               	movwf	__Umul8_16@multiplicand
  2095  0094  084A               	movf	___flmul@a+2,w
  2096  0095  120A  118A  27C9  120A  118A  	fcall	__Umul8_16
  2097  009A  0874               	movf	?__Umul8_16+1,w
  2098  009B  1283               	bcf	3,5	;RP0=0, select bank0
  2099  009C  1303               	bcf	3,6	;RP1=0, select bank0
  2100  009D  00DD               	movwf	___flmul@temp+1
  2101  009E  0873               	movf	?__Umul8_16,w
  2102  009F  00DC               	movwf	___flmul@temp
  2103  00A0                     l2620:
  2104  00A0  085C               	movf	___flmul@temp,w
  2105  00A1  00CC               	movwf	??___flmul
  2106  00A2  01CD               	clrf	??___flmul+1
  2107  00A3  01CE               	clrf	??___flmul+2
  2108  00A4  01CF               	clrf	??___flmul+3
  2109  00A5  084F               	movf	??___flmul+3,w
  2110  00A6  00D6               	movwf	___flmul@grs+3
  2111  00A7  084E               	movf	??___flmul+2,w
  2112  00A8  00D5               	movwf	___flmul@grs+2
  2113  00A9  084D               	movf	??___flmul+1,w
  2114  00AA  00D4               	movwf	___flmul@grs+1
  2115  00AB  084C               	movf	??___flmul,w
  2116  00AC  00D3               	movwf	___flmul@grs
  2117  00AD                     l2622:
  2118  00AD  085D               	movf	___flmul@temp+1,w
  2119  00AE  00CC               	movwf	??___flmul
  2120  00AF  01CD               	clrf	??___flmul+1
  2121  00B0  01CE               	clrf	??___flmul+2
  2122  00B1  01CF               	clrf	??___flmul+3
  2123  00B2  084F               	movf	??___flmul+3,w
  2124  00B3  00DB               	movwf	___flmul@prod+3
  2125  00B4  084E               	movf	??___flmul+2,w
  2126  00B5  00DA               	movwf	___flmul@prod+2
  2127  00B6  084D               	movf	??___flmul+1,w
  2128  00B7  00D9               	movwf	___flmul@prod+1
  2129  00B8  084C               	movf	??___flmul,w
  2130  00B9  00D8               	movwf	___flmul@prod
  2131  00BA  0845               	movf	___flmul@b+1,w
  2132  00BB  00CC               	movwf	??___flmul
  2133  00BC  084C               	movf	??___flmul,w
  2134  00BD  00F3               	movwf	__Umul8_16@multiplicand
  2135  00BE  0849               	movf	___flmul@a+1,w
  2136  00BF  120A  118A  27C9  120A  118A  	fcall	__Umul8_16
  2137  00C4  0874               	movf	?__Umul8_16+1,w
  2138  00C5  1283               	bcf	3,5	;RP0=0, select bank0
  2139  00C6  1303               	bcf	3,6	;RP1=0, select bank0
  2140  00C7  00DD               	movwf	___flmul@temp+1
  2141  00C8  0873               	movf	?__Umul8_16,w
  2142  00C9  00DC               	movwf	___flmul@temp
  2143  00CA                     l2624:
  2144  00CA  085C               	movf	___flmul@temp,w
  2145  00CB  00CC               	movwf	??___flmul
  2146  00CC  01CD               	clrf	??___flmul+1
  2147  00CD  01CE               	clrf	??___flmul+2
  2148  00CE  01CF               	clrf	??___flmul+3
  2149  00CF  084C               	movf	??___flmul,w
  2150  00D0  07D3               	addwf	___flmul@grs,f
  2151  00D1  084D               	movf	??___flmul+1,w
  2152  00D2  1103               	clrz
  2153  00D3  1803               	skipnc
  2154  00D4  3E01               	addlw	1
  2155  00D5  1903               	skipnz
  2156  00D6  28D8               	goto	u4011
  2157  00D7  07D4               	addwf	___flmul@grs+1,f
  2158  00D8                     u4011:
  2159  00D8  084E               	movf	??___flmul+2,w
  2160  00D9  1103               	clrz
  2161  00DA  1803               	skipnc
  2162  00DB  3E01               	addlw	1
  2163  00DC  1903               	skipnz
  2164  00DD  28DF               	goto	u4012
  2165  00DE  07D5               	addwf	___flmul@grs+2,f
  2166  00DF                     u4012:
  2167  00DF  084F               	movf	??___flmul+3,w
  2168  00E0  1103               	clrz
  2169  00E1  1803               	skipnc
  2170  00E2  3E01               	addlw	1
  2171  00E3  1903               	skipnz
  2172  00E4  28E6               	goto	u4013
  2173  00E5  07D6               	addwf	___flmul@grs+3,f
  2174  00E6                     u4013:
  2175  00E6                     l2626:
  2176  00E6  085D               	movf	___flmul@temp+1,w
  2177  00E7  00CC               	movwf	??___flmul
  2178  00E8  01CD               	clrf	??___flmul+1
  2179  00E9  01CE               	clrf	??___flmul+2
  2180  00EA  01CF               	clrf	??___flmul+3
  2181  00EB  084C               	movf	??___flmul,w
  2182  00EC  07D8               	addwf	___flmul@prod,f
  2183  00ED  084D               	movf	??___flmul+1,w
  2184  00EE  1103               	clrz
  2185  00EF  1803               	skipnc
  2186  00F0  3E01               	addlw	1
  2187  00F1  1903               	skipnz
  2188  00F2  28F4               	goto	u4021
  2189  00F3  07D9               	addwf	___flmul@prod+1,f
  2190  00F4                     u4021:
  2191  00F4  084E               	movf	??___flmul+2,w
  2192  00F5  1103               	clrz
  2193  00F6  1803               	skipnc
  2194  00F7  3E01               	addlw	1
  2195  00F8  1903               	skipnz
  2196  00F9  28FB               	goto	u4022
  2197  00FA  07DA               	addwf	___flmul@prod+2,f
  2198  00FB                     u4022:
  2199  00FB  084F               	movf	??___flmul+3,w
  2200  00FC  1103               	clrz
  2201  00FD  1803               	skipnc
  2202  00FE  3E01               	addlw	1
  2203  00FF  1903               	skipnz
  2204  0100  2902               	goto	u4023
  2205  0101  07DB               	addwf	___flmul@prod+3,f
  2206  0102                     u4023:
  2207  0102  0846               	movf	___flmul@b+2,w
  2208  0103  00CC               	movwf	??___flmul
  2209  0104  084C               	movf	??___flmul,w
  2210  0105  00F3               	movwf	__Umul8_16@multiplicand
  2211  0106  0848               	movf	___flmul@a,w
  2212  0107  120A  118A  27C9  120A  118A  	fcall	__Umul8_16
  2213  010C  0874               	movf	?__Umul8_16+1,w
  2214  010D  1283               	bcf	3,5	;RP0=0, select bank0
  2215  010E  1303               	bcf	3,6	;RP1=0, select bank0
  2216  010F  00DD               	movwf	___flmul@temp+1
  2217  0110  0873               	movf	?__Umul8_16,w
  2218  0111  00DC               	movwf	___flmul@temp
  2219  0112                     l2628:
  2220  0112  085C               	movf	___flmul@temp,w
  2221  0113  00CC               	movwf	??___flmul
  2222  0114  01CD               	clrf	??___flmul+1
  2223  0115  01CE               	clrf	??___flmul+2
  2224  0116  01CF               	clrf	??___flmul+3
  2225  0117  084C               	movf	??___flmul,w
  2226  0118  07D3               	addwf	___flmul@grs,f
  2227  0119  084D               	movf	??___flmul+1,w
  2228  011A  1103               	clrz
  2229  011B  1803               	skipnc
  2230  011C  3E01               	addlw	1
  2231  011D  1903               	skipnz
  2232  011E  2920               	goto	u4031
  2233  011F  07D4               	addwf	___flmul@grs+1,f
  2234  0120                     u4031:
  2235  0120  084E               	movf	??___flmul+2,w
  2236  0121  1103               	clrz
  2237  0122  1803               	skipnc
  2238  0123  3E01               	addlw	1
  2239  0124  1903               	skipnz
  2240  0125  2927               	goto	u4032
  2241  0126  07D5               	addwf	___flmul@grs+2,f
  2242  0127                     u4032:
  2243  0127  084F               	movf	??___flmul+3,w
  2244  0128  1103               	clrz
  2245  0129  1803               	skipnc
  2246  012A  3E01               	addlw	1
  2247  012B  1903               	skipnz
  2248  012C  292E               	goto	u4033
  2249  012D  07D6               	addwf	___flmul@grs+3,f
  2250  012E                     u4033:
  2251  012E                     l2630:
  2252  012E  085D               	movf	___flmul@temp+1,w
  2253  012F  00CC               	movwf	??___flmul
  2254  0130  01CD               	clrf	??___flmul+1
  2255  0131  01CE               	clrf	??___flmul+2
  2256  0132  01CF               	clrf	??___flmul+3
  2257  0133  084C               	movf	??___flmul,w
  2258  0134  07D8               	addwf	___flmul@prod,f
  2259  0135  084D               	movf	??___flmul+1,w
  2260  0136  1103               	clrz
  2261  0137  1803               	skipnc
  2262  0138  3E01               	addlw	1
  2263  0139  1903               	skipnz
  2264  013A  293C               	goto	u4041
  2265  013B  07D9               	addwf	___flmul@prod+1,f
  2266  013C                     u4041:
  2267  013C  084E               	movf	??___flmul+2,w
  2268  013D  1103               	clrz
  2269  013E  1803               	skipnc
  2270  013F  3E01               	addlw	1
  2271  0140  1903               	skipnz
  2272  0141  2943               	goto	u4042
  2273  0142  07DA               	addwf	___flmul@prod+2,f
  2274  0143                     u4042:
  2275  0143  084F               	movf	??___flmul+3,w
  2276  0144  1103               	clrz
  2277  0145  1803               	skipnc
  2278  0146  3E01               	addlw	1
  2279  0147  1903               	skipnz
  2280  0148  294A               	goto	u4043
  2281  0149  07DB               	addwf	___flmul@prod+3,f
  2282  014A                     u4043:
  2283  014A                     l2632:
  2284  014A  3008               	movlw	8
  2285  014B  00CC               	movwf	??___flmul
  2286  014C                     u4055:
  2287  014C  1003               	clrc
  2288  014D  0DD3               	rlf	___flmul@grs,f
  2289  014E  0DD4               	rlf	___flmul@grs+1,f
  2290  014F  0DD5               	rlf	___flmul@grs+2,f
  2291  0150  0DD6               	rlf	___flmul@grs+3,f
  2292  0151  0BCC               	decfsz	??___flmul,f
  2293  0152  294C               	goto	u4055
  2294  0153                     l2634:
  2295  0153  0845               	movf	___flmul@b+1,w
  2296  0154  00CC               	movwf	??___flmul
  2297  0155  084C               	movf	??___flmul,w
  2298  0156  00F3               	movwf	__Umul8_16@multiplicand
  2299  0157  0848               	movf	___flmul@a,w
  2300  0158  120A  118A  27C9  120A  118A  	fcall	__Umul8_16
  2301  015D  0874               	movf	?__Umul8_16+1,w
  2302  015E  1283               	bcf	3,5	;RP0=0, select bank0
  2303  015F  1303               	bcf	3,6	;RP1=0, select bank0
  2304  0160  00DD               	movwf	___flmul@temp+1
  2305  0161  0873               	movf	?__Umul8_16,w
  2306  0162  00DC               	movwf	___flmul@temp
  2307  0163                     l2636:
  2308  0163  085C               	movf	___flmul@temp,w
  2309  0164  00CC               	movwf	??___flmul
  2310  0165  085D               	movf	___flmul@temp+1,w
  2311  0166  00CD               	movwf	??___flmul+1
  2312  0167  01CE               	clrf	??___flmul+2
  2313  0168  01CF               	clrf	??___flmul+3
  2314  0169  084C               	movf	??___flmul,w
  2315  016A  07D3               	addwf	___flmul@grs,f
  2316  016B  084D               	movf	??___flmul+1,w
  2317  016C  1103               	clrz
  2318  016D  1803               	skipnc
  2319  016E  3E01               	addlw	1
  2320  016F  1903               	skipnz
  2321  0170  2972               	goto	u4061
  2322  0171  07D4               	addwf	___flmul@grs+1,f
  2323  0172                     u4061:
  2324  0172  084E               	movf	??___flmul+2,w
  2325  0173  1103               	clrz
  2326  0174  1803               	skipnc
  2327  0175  3E01               	addlw	1
  2328  0176  1903               	skipnz
  2329  0177  2979               	goto	u4062
  2330  0178  07D5               	addwf	___flmul@grs+2,f
  2331  0179                     u4062:
  2332  0179  084F               	movf	??___flmul+3,w
  2333  017A  1103               	clrz
  2334  017B  1803               	skipnc
  2335  017C  3E01               	addlw	1
  2336  017D  1903               	skipnz
  2337  017E  2980               	goto	u4063
  2338  017F  07D6               	addwf	___flmul@grs+3,f
  2339  0180                     u4063:
  2340  0180                     l2638:
  2341  0180  0844               	movf	___flmul@b,w
  2342  0181  00CC               	movwf	??___flmul
  2343  0182  084C               	movf	??___flmul,w
  2344  0183  00F3               	movwf	__Umul8_16@multiplicand
  2345  0184  0849               	movf	___flmul@a+1,w
  2346  0185  120A  118A  27C9  120A  118A  	fcall	__Umul8_16
  2347  018A  0874               	movf	?__Umul8_16+1,w
  2348  018B  1283               	bcf	3,5	;RP0=0, select bank0
  2349  018C  1303               	bcf	3,6	;RP1=0, select bank0
  2350  018D  00DD               	movwf	___flmul@temp+1
  2351  018E  0873               	movf	?__Umul8_16,w
  2352  018F  00DC               	movwf	___flmul@temp
  2353  0190                     l2640:
  2354  0190  085C               	movf	___flmul@temp,w
  2355  0191  00CC               	movwf	??___flmul
  2356  0192  085D               	movf	___flmul@temp+1,w
  2357  0193  00CD               	movwf	??___flmul+1
  2358  0194  01CE               	clrf	??___flmul+2
  2359  0195  01CF               	clrf	??___flmul+3
  2360  0196  084C               	movf	??___flmul,w
  2361  0197  07D3               	addwf	___flmul@grs,f
  2362  0198  084D               	movf	??___flmul+1,w
  2363  0199  1103               	clrz
  2364  019A  1803               	skipnc
  2365  019B  3E01               	addlw	1
  2366  019C  1903               	skipnz
  2367  019D  299F               	goto	u4071
  2368  019E  07D4               	addwf	___flmul@grs+1,f
  2369  019F                     u4071:
  2370  019F  084E               	movf	??___flmul+2,w
  2371  01A0  1103               	clrz
  2372  01A1  1803               	skipnc
  2373  01A2  3E01               	addlw	1
  2374  01A3  1903               	skipnz
  2375  01A4  29A6               	goto	u4072
  2376  01A5  07D5               	addwf	___flmul@grs+2,f
  2377  01A6                     u4072:
  2378  01A6  084F               	movf	??___flmul+3,w
  2379  01A7  1103               	clrz
  2380  01A8  1803               	skipnc
  2381  01A9  3E01               	addlw	1
  2382  01AA  1903               	skipnz
  2383  01AB  29AD               	goto	u4073
  2384  01AC  07D6               	addwf	___flmul@grs+3,f
  2385  01AD                     u4073:
  2386  01AD                     l2642:
  2387  01AD  3008               	movlw	8
  2388  01AE  00CC               	movwf	??___flmul
  2389  01AF                     u4085:
  2390  01AF  1003               	clrc
  2391  01B0  0DD3               	rlf	___flmul@grs,f
  2392  01B1  0DD4               	rlf	___flmul@grs+1,f
  2393  01B2  0DD5               	rlf	___flmul@grs+2,f
  2394  01B3  0DD6               	rlf	___flmul@grs+3,f
  2395  01B4  0BCC               	decfsz	??___flmul,f
  2396  01B5  29AF               	goto	u4085
  2397  01B6  0844               	movf	___flmul@b,w
  2398  01B7  00CC               	movwf	??___flmul
  2399  01B8  084C               	movf	??___flmul,w
  2400  01B9  00F3               	movwf	__Umul8_16@multiplicand
  2401  01BA  0848               	movf	___flmul@a,w
  2402  01BB  120A  118A  27C9  120A  118A  	fcall	__Umul8_16
  2403  01C0  0874               	movf	?__Umul8_16+1,w
  2404  01C1  1283               	bcf	3,5	;RP0=0, select bank0
  2405  01C2  1303               	bcf	3,6	;RP1=0, select bank0
  2406  01C3  00DD               	movwf	___flmul@temp+1
  2407  01C4  0873               	movf	?__Umul8_16,w
  2408  01C5  00DC               	movwf	___flmul@temp
  2409  01C6                     l2644:
  2410  01C6  085C               	movf	___flmul@temp,w
  2411  01C7  00CC               	movwf	??___flmul
  2412  01C8  085D               	movf	___flmul@temp+1,w
  2413  01C9  00CD               	movwf	??___flmul+1
  2414  01CA  01CE               	clrf	??___flmul+2
  2415  01CB  01CF               	clrf	??___flmul+3
  2416  01CC  084C               	movf	??___flmul,w
  2417  01CD  07D3               	addwf	___flmul@grs,f
  2418  01CE  084D               	movf	??___flmul+1,w
  2419  01CF  1103               	clrz
  2420  01D0  1803               	skipnc
  2421  01D1  3E01               	addlw	1
  2422  01D2  1903               	skipnz
  2423  01D3  29D5               	goto	u4091
  2424  01D4  07D4               	addwf	___flmul@grs+1,f
  2425  01D5                     u4091:
  2426  01D5  084E               	movf	??___flmul+2,w
  2427  01D6  1103               	clrz
  2428  01D7  1803               	skipnc
  2429  01D8  3E01               	addlw	1
  2430  01D9  1903               	skipnz
  2431  01DA  29DC               	goto	u4092
  2432  01DB  07D5               	addwf	___flmul@grs+2,f
  2433  01DC                     u4092:
  2434  01DC  084F               	movf	??___flmul+3,w
  2435  01DD  1103               	clrz
  2436  01DE  1803               	skipnc
  2437  01DF  3E01               	addlw	1
  2438  01E0  1903               	skipnz
  2439  01E1  29E3               	goto	u4093
  2440  01E2  07D6               	addwf	___flmul@grs+3,f
  2441  01E3                     u4093:
  2442  01E3                     l2646:
  2443  01E3  0845               	movf	___flmul@b+1,w
  2444  01E4  00CC               	movwf	??___flmul
  2445  01E5  084C               	movf	??___flmul,w
  2446  01E6  00F3               	movwf	__Umul8_16@multiplicand
  2447  01E7  084A               	movf	___flmul@a+2,w
  2448  01E8  120A  118A  27C9  120A  118A  	fcall	__Umul8_16
  2449  01ED  0874               	movf	?__Umul8_16+1,w
  2450  01EE  1283               	bcf	3,5	;RP0=0, select bank0
  2451  01EF  1303               	bcf	3,6	;RP1=0, select bank0
  2452  01F0  00DD               	movwf	___flmul@temp+1
  2453  01F1  0873               	movf	?__Umul8_16,w
  2454  01F2  00DC               	movwf	___flmul@temp
  2455  01F3  085C               	movf	___flmul@temp,w
  2456  01F4  00CC               	movwf	??___flmul
  2457  01F5  085D               	movf	___flmul@temp+1,w
  2458  01F6  00CD               	movwf	??___flmul+1
  2459  01F7  01CE               	clrf	??___flmul+2
  2460  01F8  01CF               	clrf	??___flmul+3
  2461  01F9  084C               	movf	??___flmul,w
  2462  01FA  07D8               	addwf	___flmul@prod,f
  2463  01FB  084D               	movf	??___flmul+1,w
  2464  01FC  1103               	clrz
  2465  01FD  1803               	skipnc
  2466  01FE  3E01               	addlw	1
  2467  01FF  1903               	skipnz
  2468  0200  2A02               	goto	u4101
  2469  0201  07D9               	addwf	___flmul@prod+1,f
  2470  0202                     u4101:
  2471  0202  084E               	movf	??___flmul+2,w
  2472  0203  1103               	clrz
  2473  0204  1803               	skipnc
  2474  0205  3E01               	addlw	1
  2475  0206  1903               	skipnz
  2476  0207  2A09               	goto	u4102
  2477  0208  07DA               	addwf	___flmul@prod+2,f
  2478  0209                     u4102:
  2479  0209  084F               	movf	??___flmul+3,w
  2480  020A  1103               	clrz
  2481  020B  1803               	skipnc
  2482  020C  3E01               	addlw	1
  2483  020D  1903               	skipnz
  2484  020E  2A10               	goto	u4103
  2485  020F  07DB               	addwf	___flmul@prod+3,f
  2486  0210                     u4103:
  2487  0210                     l2648:
  2488  0210  0846               	movf	___flmul@b+2,w
  2489  0211  00CC               	movwf	??___flmul
  2490  0212  084C               	movf	??___flmul,w
  2491  0213  00F3               	movwf	__Umul8_16@multiplicand
  2492  0214  0849               	movf	___flmul@a+1,w
  2493  0215  120A  118A  27C9  120A  118A  	fcall	__Umul8_16
  2494  021A  0874               	movf	?__Umul8_16+1,w
  2495  021B  1283               	bcf	3,5	;RP0=0, select bank0
  2496  021C  1303               	bcf	3,6	;RP1=0, select bank0
  2497  021D  00DD               	movwf	___flmul@temp+1
  2498  021E  0873               	movf	?__Umul8_16,w
  2499  021F  00DC               	movwf	___flmul@temp
  2500  0220                     l2650:
  2501  0220  085C               	movf	___flmul@temp,w
  2502  0221  00CC               	movwf	??___flmul
  2503  0222  085D               	movf	___flmul@temp+1,w
  2504  0223  00CD               	movwf	??___flmul+1
  2505  0224  01CE               	clrf	??___flmul+2
  2506  0225  01CF               	clrf	??___flmul+3
  2507  0226  084C               	movf	??___flmul,w
  2508  0227  07D8               	addwf	___flmul@prod,f
  2509  0228  084D               	movf	??___flmul+1,w
  2510  0229  1103               	clrz
  2511  022A  1803               	skipnc
  2512  022B  3E01               	addlw	1
  2513  022C  1903               	skipnz
  2514  022D  2A2F               	goto	u4111
  2515  022E  07D9               	addwf	___flmul@prod+1,f
  2516  022F                     u4111:
  2517  022F  084E               	movf	??___flmul+2,w
  2518  0230  1103               	clrz
  2519  0231  1803               	skipnc
  2520  0232  3E01               	addlw	1
  2521  0233  1903               	skipnz
  2522  0234  2A36               	goto	u4112
  2523  0235  07DA               	addwf	___flmul@prod+2,f
  2524  0236                     u4112:
  2525  0236  084F               	movf	??___flmul+3,w
  2526  0237  1103               	clrz
  2527  0238  1803               	skipnc
  2528  0239  3E01               	addlw	1
  2529  023A  1903               	skipnz
  2530  023B  2A3D               	goto	u4113
  2531  023C  07DB               	addwf	___flmul@prod+3,f
  2532  023D                     u4113:
  2533  023D  0846               	movf	___flmul@b+2,w
  2534  023E  00CC               	movwf	??___flmul
  2535  023F  084C               	movf	??___flmul,w
  2536  0240  00F3               	movwf	__Umul8_16@multiplicand
  2537  0241  084A               	movf	___flmul@a+2,w
  2538  0242  120A  118A  27C9  120A  118A  	fcall	__Umul8_16
  2539  0247  0874               	movf	?__Umul8_16+1,w
  2540  0248  1283               	bcf	3,5	;RP0=0, select bank0
  2541  0249  1303               	bcf	3,6	;RP1=0, select bank0
  2542  024A  00DD               	movwf	___flmul@temp+1
  2543  024B  0873               	movf	?__Umul8_16,w
  2544  024C  00DC               	movwf	___flmul@temp
  2545  024D                     l2652:
  2546  024D  085C               	movf	___flmul@temp,w
  2547  024E  00CC               	movwf	??___flmul
  2548  024F  085D               	movf	___flmul@temp+1,w
  2549  0250  00CD               	movwf	??___flmul+1
  2550  0251  01CE               	clrf	??___flmul+2
  2551  0252  01CF               	clrf	??___flmul+3
  2552  0253  3008               	movlw	8
  2553  0254                     u4125:
  2554  0254  1003               	clrc
  2555  0255  0DCC               	rlf	??___flmul,f
  2556  0256  0DCD               	rlf	??___flmul+1,f
  2557  0257  0DCE               	rlf	??___flmul+2,f
  2558  0258  0DCF               	rlf	??___flmul+3,f
  2559  0259                     u4120:
  2560  0259  3EFF               	addlw	-1
  2561  025A  1D03               	skipz
  2562  025B  2A54               	goto	u4125
  2563  025C  084C               	movf	??___flmul,w
  2564  025D  07D8               	addwf	___flmul@prod,f
  2565  025E  084D               	movf	??___flmul+1,w
  2566  025F  1103               	clrz
  2567  0260  1803               	skipnc
  2568  0261  3E01               	addlw	1
  2569  0262  1903               	skipnz
  2570  0263  2A65               	goto	u4131
  2571  0264  07D9               	addwf	___flmul@prod+1,f
  2572  0265                     u4131:
  2573  0265  084E               	movf	??___flmul+2,w
  2574  0266  1103               	clrz
  2575  0267  1803               	skipnc
  2576  0268  3E01               	addlw	1
  2577  0269  1903               	skipnz
  2578  026A  2A6C               	goto	u4132
  2579  026B  07DA               	addwf	___flmul@prod+2,f
  2580  026C                     u4132:
  2581  026C  084F               	movf	??___flmul+3,w
  2582  026D  1103               	clrz
  2583  026E  1803               	skipnc
  2584  026F  3E01               	addlw	1
  2585  0270  1903               	skipnz
  2586  0271  2A73               	goto	u4133
  2587  0272  07DB               	addwf	___flmul@prod+3,f
  2588  0273                     u4133:
  2589  0273                     l2654:
  2590  0273  0853               	movf	___flmul@grs,w
  2591  0274  00CC               	movwf	??___flmul
  2592  0275  0854               	movf	___flmul@grs+1,w
  2593  0276  00CD               	movwf	??___flmul+1
  2594  0277  0855               	movf	___flmul@grs+2,w
  2595  0278  00CE               	movwf	??___flmul+2
  2596  0279  0856               	movf	___flmul@grs+3,w
  2597  027A  00CF               	movwf	??___flmul+3
  2598  027B  3018               	movlw	24
  2599  027C                     u4145:
  2600  027C  1003               	clrc
  2601  027D  0CCF               	rrf	??___flmul+3,f
  2602  027E  0CCE               	rrf	??___flmul+2,f
  2603  027F  0CCD               	rrf	??___flmul+1,f
  2604  0280  0CCC               	rrf	??___flmul,f
  2605  0281                     u4140:
  2606  0281  3EFF               	addlw	-1
  2607  0282  1D03               	skipz
  2608  0283  2A7C               	goto	u4145
  2609  0284  084C               	movf	??___flmul,w
  2610  0285  07D8               	addwf	___flmul@prod,f
  2611  0286  084D               	movf	??___flmul+1,w
  2612  0287  1103               	clrz
  2613  0288  1803               	skipnc
  2614  0289  3E01               	addlw	1
  2615  028A  1903               	skipnz
  2616  028B  2A8D               	goto	u4151
  2617  028C  07D9               	addwf	___flmul@prod+1,f
  2618  028D                     u4151:
  2619  028D  084E               	movf	??___flmul+2,w
  2620  028E  1103               	clrz
  2621  028F  1803               	skipnc
  2622  0290  3E01               	addlw	1
  2623  0291  1903               	skipnz
  2624  0292  2A94               	goto	u4152
  2625  0293  07DA               	addwf	___flmul@prod+2,f
  2626  0294                     u4152:
  2627  0294  084F               	movf	??___flmul+3,w
  2628  0295  1103               	clrz
  2629  0296  1803               	skipnc
  2630  0297  3E01               	addlw	1
  2631  0298  1903               	skipnz
  2632  0299  2A9B               	goto	u4153
  2633  029A  07DB               	addwf	___flmul@prod+3,f
  2634  029B                     u4153:
  2635  029B                     l2656:
  2636  029B  3008               	movlw	8
  2637  029C  00CC               	movwf	??___flmul
  2638  029D                     u4165:
  2639  029D  1003               	clrc
  2640  029E  0DD3               	rlf	___flmul@grs,f
  2641  029F  0DD4               	rlf	___flmul@grs+1,f
  2642  02A0  0DD5               	rlf	___flmul@grs+2,f
  2643  02A1  0DD6               	rlf	___flmul@grs+3,f
  2644  02A2  0BCC               	decfsz	??___flmul,f
  2645  02A3  2A9D               	goto	u4165
  2646  02A4                     l2658:
  2647  02A4  0857               	movf	___flmul@bexp,w
  2648  02A5  0752               	addwf	___flmul@aexp,w
  2649  02A6  00CC               	movwf	??___flmul
  2650  02A7  01CD               	clrf	??___flmul+1
  2651  02A8  0DCD               	rlf	??___flmul+1,f
  2652  02A9  084C               	movf	??___flmul,w
  2653  02AA  3E82               	addlw	130
  2654  02AB  00DC               	movwf	___flmul@temp
  2655  02AC  084D               	movf	??___flmul+1,w
  2656  02AD  1803               	skipnc
  2657  02AE  3E01               	addlw	1
  2658  02AF  3EFF               	addlw	255
  2659  02B0  00DD               	movwf	___flmul@temp+1
  2660  02B1  2ACF               	goto	l2670
  2661  02B2                     l2660:
  2662  02B2  3001               	movlw	1
  2663  02B3  00CC               	movwf	??___flmul
  2664  02B4                     u4175:
  2665  02B4  1003               	clrc
  2666  02B5  0DD8               	rlf	___flmul@prod,f
  2667  02B6  0DD9               	rlf	___flmul@prod+1,f
  2668  02B7  0DDA               	rlf	___flmul@prod+2,f
  2669  02B8  0DDB               	rlf	___flmul@prod+3,f
  2670  02B9  0BCC               	decfsz	??___flmul,f
  2671  02BA  2AB4               	goto	u4175
  2672  02BB                     l2662:
  2673  02BB  1FD6               	btfss	___flmul@grs+3,7
  2674  02BC  2ABE               	goto	u4181
  2675  02BD  2ABF               	goto	u4180
  2676  02BE                     u4181:
  2677  02BE  2AC0               	goto	l2666
  2678  02BF                     u4180:
  2679  02BF                     l2664:
  2680  02BF  1458               	bsf	___flmul@prod,0
  2681  02C0                     l2666:
  2682  02C0  3001               	movlw	1
  2683  02C1  00CC               	movwf	??___flmul
  2684  02C2                     u4195:
  2685  02C2  1003               	clrc
  2686  02C3  0DD3               	rlf	___flmul@grs,f
  2687  02C4  0DD4               	rlf	___flmul@grs+1,f
  2688  02C5  0DD5               	rlf	___flmul@grs+2,f
  2689  02C6  0DD6               	rlf	___flmul@grs+3,f
  2690  02C7  0BCC               	decfsz	??___flmul,f
  2691  02C8  2AC2               	goto	u4195
  2692  02C9                     l2668:
  2693  02C9  30FF               	movlw	255
  2694  02CA  07DC               	addwf	___flmul@temp,f
  2695  02CB  1803               	skipnc
  2696  02CC  0ADD               	incf	___flmul@temp+1,f
  2697  02CD  30FF               	movlw	255
  2698  02CE  07DD               	addwf	___flmul@temp+1,f
  2699  02CF                     l2670:
  2700  02CF  1FDA               	btfss	___flmul@prod+2,7
  2701  02D0  2AD2               	goto	u4201
  2702  02D1  2AD3               	goto	u4200
  2703  02D2                     u4201:
  2704  02D2  2AB2               	goto	l2660
  2705  02D3                     u4200:
  2706  02D3                     l2672:
  2707  02D3  01D2               	clrf	___flmul@aexp
  2708  02D4                     l2674:
  2709  02D4  1FD6               	btfss	___flmul@grs+3,7
  2710  02D5  2AD7               	goto	u4211
  2711  02D6  2AD8               	goto	u4210
  2712  02D7                     u4211:
  2713  02D7  2AF4               	goto	l2682
  2714  02D8                     u4210:
  2715  02D8                     l2676:
  2716  02D8  30FF               	movlw	255
  2717  02D9  0553               	andwf	___flmul@grs,w
  2718  02DA  00CC               	movwf	??___flmul
  2719  02DB  30FF               	movlw	255
  2720  02DC  0554               	andwf	___flmul@grs+1,w
  2721  02DD  00CD               	movwf	??___flmul+1
  2722  02DE  30FF               	movlw	255
  2723  02DF  0555               	andwf	___flmul@grs+2,w
  2724  02E0  00CE               	movwf	??___flmul+2
  2725  02E1  307F               	movlw	127
  2726  02E2  0556               	andwf	___flmul@grs+3,w
  2727  02E3  00CF               	movwf	??___flmul+3
  2728  02E4  084F               	movf	??___flmul+3,w
  2729  02E5  044E               	iorwf	??___flmul+2,w
  2730  02E6  044D               	iorwf	??___flmul+1,w
  2731  02E7  044C               	iorwf	??___flmul,w
  2732  02E8  1903               	skipnz
  2733  02E9  2AEB               	goto	u4221
  2734  02EA  2AEC               	goto	u4220
  2735  02EB                     u4221:
  2736  02EB  2AEF               	goto	l601
  2737  02EC                     u4220:
  2738  02EC                     l2678:
  2739  02EC  01D2               	clrf	___flmul@aexp
  2740  02ED  0AD2               	incf	___flmul@aexp,f
  2741  02EE  2AF4               	goto	l2682
  2742  02EF                     l601:
  2743  02EF  1C58               	btfss	___flmul@prod,0
  2744  02F0  2AF2               	goto	u4231
  2745  02F1  2AF3               	goto	u4230
  2746  02F2                     u4231:
  2747  02F2  2AF4               	goto	l2682
  2748  02F3                     u4230:
  2749  02F3  2AEC               	goto	l2678
  2750  02F4                     l2682:
  2751  02F4  0852               	movf	___flmul@aexp,w
  2752  02F5  1903               	btfsc	3,2
  2753  02F6  2AF8               	goto	u4241
  2754  02F7  2AF9               	goto	u4240
  2755  02F8                     u4241:
  2756  02F8  2B2A               	goto	l2692
  2757  02F9                     u4240:
  2758  02F9                     l2684:
  2759  02F9  3001               	movlw	1
  2760  02FA  07D8               	addwf	___flmul@prod,f
  2761  02FB  3000               	movlw	0
  2762  02FC  1803               	skipnc
  2763  02FD  3001               	movlw	1
  2764  02FE  07D9               	addwf	___flmul@prod+1,f
  2765  02FF  3000               	movlw	0
  2766  0300  1803               	skipnc
  2767  0301  3001               	movlw	1
  2768  0302  07DA               	addwf	___flmul@prod+2,f
  2769  0303  3000               	movlw	0
  2770  0304  1803               	skipnc
  2771  0305  3001               	movlw	1
  2772  0306  07DB               	addwf	___flmul@prod+3,f
  2773  0307                     l2686:
  2774  0307  1C5B               	btfss	___flmul@prod+3,0
  2775  0308  2B0A               	goto	u4251
  2776  0309  2B0B               	goto	u4250
  2777  030A                     u4251:
  2778  030A  2B2A               	goto	l2692
  2779  030B                     u4250:
  2780  030B                     l2688:
  2781  030B  0858               	movf	___flmul@prod,w
  2782  030C  00CC               	movwf	??___flmul
  2783  030D  0859               	movf	___flmul@prod+1,w
  2784  030E  00CD               	movwf	??___flmul+1
  2785  030F  085A               	movf	___flmul@prod+2,w
  2786  0310  00CE               	movwf	??___flmul+2
  2787  0311  085B               	movf	___flmul@prod+3,w
  2788  0312  00CF               	movwf	??___flmul+3
  2789  0313  3001               	movlw	1
  2790  0314  00D0               	movwf	??___flmul+4
  2791  0315                     u4265:
  2792  0315  0D4F               	rlf	??___flmul+3,w
  2793  0316  0CCF               	rrf	??___flmul+3,f
  2794  0317  0CCE               	rrf	??___flmul+2,f
  2795  0318  0CCD               	rrf	??___flmul+1,f
  2796  0319  0CCC               	rrf	??___flmul,f
  2797  031A                     u4260:
  2798  031A  0BD0               	decfsz	??___flmul+4,f
  2799  031B  2B15               	goto	u4265
  2800  031C  084F               	movf	??___flmul+3,w
  2801  031D  00DB               	movwf	___flmul@prod+3
  2802  031E  084E               	movf	??___flmul+2,w
  2803  031F  00DA               	movwf	___flmul@prod+2
  2804  0320  084D               	movf	??___flmul+1,w
  2805  0321  00D9               	movwf	___flmul@prod+1
  2806  0322  084C               	movf	??___flmul,w
  2807  0323  00D8               	movwf	___flmul@prod
  2808  0324                     l2690:
  2809  0324  3001               	movlw	1
  2810  0325  07DC               	addwf	___flmul@temp,f
  2811  0326  1803               	skipnc
  2812  0327  0ADD               	incf	___flmul@temp+1,f
  2813  0328  3000               	movlw	0
  2814  0329  07DD               	addwf	___flmul@temp+1,f
  2815  032A                     l2692:
  2816  032A  085D               	movf	___flmul@temp+1,w
  2817  032B  3A80               	xorlw	128
  2818  032C  00FF               	movwf	btemp+1
  2819  032D  3080               	movlw	128
  2820  032E  027F               	subwf	btemp+1,w
  2821  032F  1D03               	skipz
  2822  0330  2B33               	goto	u4275
  2823  0331  30FF               	movlw	255
  2824  0332  025C               	subwf	___flmul@temp,w
  2825  0333                     u4275:
  2826  0333  1C03               	skipc
  2827  0334  2B36               	goto	u4271
  2828  0335  2B37               	goto	u4270
  2829  0336                     u4271:
  2830  0336  2B42               	goto	l2696
  2831  0337                     u4270:
  2832  0337                     l2694:
  2833  0337  307F               	movlw	127
  2834  0338  1283               	bcf	3,5	;RP0=0, select bank0
  2835  0339  1303               	bcf	3,6	;RP1=0, select bank0
  2836  033A  00DB               	movwf	___flmul@prod+3
  2837  033B  3080               	movlw	128
  2838  033C  00DA               	movwf	___flmul@prod+2
  2839  033D  3000               	movlw	0
  2840  033E  00D9               	movwf	___flmul@prod+1
  2841  033F  3000               	movlw	0
  2842  0340  00D8               	movwf	___flmul@prod
  2843  0341  2B77               	goto	l607
  2844  0342                     l2696:
  2845  0342  1283               	bcf	3,5	;RP0=0, select bank0
  2846  0343  1303               	bcf	3,6	;RP1=0, select bank0
  2847  0344  085D               	movf	___flmul@temp+1,w
  2848  0345  3A80               	xorlw	128
  2849  0346  00FF               	movwf	btemp+1
  2850  0347  3080               	movlw	128
  2851  0348  027F               	subwf	btemp+1,w
  2852  0349  1D03               	skipz
  2853  034A  2B4D               	goto	u4285
  2854  034B  3001               	movlw	1
  2855  034C  025C               	subwf	___flmul@temp,w
  2856  034D                     u4285:
  2857  034D  1803               	skipnc
  2858  034E  2B50               	goto	u4281
  2859  034F  2B51               	goto	u4280
  2860  0350                     u4281:
  2861  0350  2B5D               	goto	l2702
  2862  0351                     u4280:
  2863  0351                     l2698:
  2864  0351  3000               	movlw	0
  2865  0352  1283               	bcf	3,5	;RP0=0, select bank0
  2866  0353  1303               	bcf	3,6	;RP1=0, select bank0
  2867  0354  00DB               	movwf	___flmul@prod+3
  2868  0355  3000               	movlw	0
  2869  0356  00DA               	movwf	___flmul@prod+2
  2870  0357  3000               	movlw	0
  2871  0358  00D9               	movwf	___flmul@prod+1
  2872  0359  3000               	movlw	0
  2873  035A  00D8               	movwf	___flmul@prod
  2874  035B                     l2700:
  2875  035B  01D1               	clrf	___flmul@sign
  2876  035C  2B77               	goto	l607
  2877  035D                     l2702:
  2878  035D  1283               	bcf	3,5	;RP0=0, select bank0
  2879  035E  1303               	bcf	3,6	;RP1=0, select bank0
  2880  035F  085C               	movf	___flmul@temp,w
  2881  0360  00CC               	movwf	??___flmul
  2882  0361  084C               	movf	??___flmul,w
  2883  0362  00D7               	movwf	___flmul@bexp
  2884  0363  30FF               	movlw	255
  2885  0364  05D8               	andwf	___flmul@prod,f
  2886  0365  30FF               	movlw	255
  2887  0366  05D9               	andwf	___flmul@prod+1,f
  2888  0367  307F               	movlw	127
  2889  0368  05DA               	andwf	___flmul@prod+2,f
  2890  0369  3000               	movlw	0
  2891  036A  05DB               	andwf	___flmul@prod+3,f
  2892  036B                     l2704:
  2893  036B  1C57               	btfss	___flmul@bexp,0
  2894  036C  2B6E               	goto	u4291
  2895  036D  2B6F               	goto	u4290
  2896  036E                     u4291:
  2897  036E  2B70               	goto	l2708
  2898  036F                     u4290:
  2899  036F                     l2706:
  2900  036F  17DA               	bsf	___flmul@prod+2,7
  2901  0370                     l2708:
  2902  0370  0857               	movf	___flmul@bexp,w
  2903  0371  00CC               	movwf	??___flmul
  2904  0372  1003               	clrc
  2905  0373  0C4C               	rrf	??___flmul,w
  2906  0374  00CD               	movwf	??___flmul+1
  2907  0375  084D               	movf	??___flmul+1,w
  2908  0376  00DB               	movwf	___flmul@prod+3
  2909  0377                     l607:
  2910  0377  0851               	movf	___flmul@sign,w
  2911  0378  00CC               	movwf	??___flmul
  2912  0379  084C               	movf	??___flmul,w
  2913  037A  04DB               	iorwf	___flmul@prod+3,f
  2914  037B                     l2710:
  2915  037B  085B               	movf	___flmul@prod+3,w
  2916  037C  00C7               	movwf	?___flmul+3
  2917  037D  085A               	movf	___flmul@prod+2,w
  2918  037E  00C6               	movwf	?___flmul+2
  2919  037F  0859               	movf	___flmul@prod+1,w
  2920  0380  00C5               	movwf	?___flmul+1
  2921  0381  0858               	movf	___flmul@prod,w
  2922  0382  00C4               	movwf	?___flmul
  2923  0383                     l595:
  2924  0383  0008               	return
  2925  0384                     __end_of___flmul:
  2926                           
  2927                           	psect	text6
  2928  07C9                     __ptext6:	
  2929 ;; *************** function __Umul8_16 *****************
  2930 ;; Defined at:
  2931 ;;		line 4 in file "C:\Program Files\Microchip\xc8\v2.35\pic\sources\c90\common\Umul8_16.c"
  2932 ;; Parameters:    Size  Location     Type
  2933 ;;  multiplier      1    wreg     unsigned char 
  2934 ;;  multiplicand    1    3[COMMON] unsigned char 
  2935 ;; Auto vars:     Size  Location     Type
  2936 ;;  multiplier      1    4[BANK0 ] unsigned char 
  2937 ;;  word_mpld       2    2[BANK0 ] unsigned int 
  2938 ;;  product         2    0[BANK0 ] unsigned int 
  2939 ;; Return value:  Size  Location     Type
  2940 ;;                  2    3[COMMON] unsigned int 
  2941 ;; Registers used:
  2942 ;;		wreg, status,2, status,0
  2943 ;; Tracked objects:
  2944 ;;		On entry : 0/0
  2945 ;;		On exit  : 0/0
  2946 ;;		Unchanged: 0/0
  2947 ;; Data sizes:     COMMON   BANK0   BANK1   BANK3   BANK2
  2948 ;;      Params:         2       0       0       0       0
  2949 ;;      Locals:         0       5       0       0       0
  2950 ;;      Temps:          2       0       0       0       0
  2951 ;;      Totals:         4       5       0       0       0
  2952 ;;Total ram usage:        9 bytes
  2953 ;; Hardware stack levels used: 1
  2954 ;; Hardware stack levels required when called: 1
  2955 ;; This function calls:
  2956 ;;		Nothing
  2957 ;; This function is called by:
  2958 ;;		___flmul
  2959 ;; This function uses a non-reentrant model
  2960 ;;
  2961                           
  2962  07C9                     __Umul8_16:	
  2963                           ;psect for function __Umul8_16
  2964                           
  2965                           
  2966                           ;incstack = 0
  2967                           ; Regs used in __Umul8_16: [wreg+status,2+status,0]
  2968                           ;__Umul8_16@multiplier stored from wreg
  2969  07C9  1283               	bcf	3,5	;RP0=0, select bank0
  2970  07CA  1303               	bcf	3,6	;RP1=0, select bank0
  2971  07CB  00A4               	movwf	__Umul8_16@multiplier
  2972  07CC                     l2188:
  2973  07CC  01A0               	clrf	__Umul8_16@product
  2974  07CD  01A1               	clrf	__Umul8_16@product+1
  2975  07CE                     l2190:
  2976  07CE  0873               	movf	__Umul8_16@multiplicand,w
  2977  07CF  00F5               	movwf	??__Umul8_16
  2978  07D0  01F6               	clrf	??__Umul8_16+1
  2979  07D1  0875               	movf	??__Umul8_16,w
  2980  07D2  00A2               	movwf	__Umul8_16@word_mpld
  2981  07D3  0876               	movf	??__Umul8_16+1,w
  2982  07D4  00A3               	movwf	__Umul8_16@word_mpld+1
  2983  07D5                     l2192:
  2984  07D5  1C24               	btfss	__Umul8_16@multiplier,0
  2985  07D6  2FD8               	goto	u3051
  2986  07D7  2FD9               	goto	u3050
  2987  07D8                     u3051:
  2988  07D8  2FDF               	goto	l614
  2989  07D9                     u3050:
  2990  07D9                     l2194:
  2991  07D9  0822               	movf	__Umul8_16@word_mpld,w
  2992  07DA  07A0               	addwf	__Umul8_16@product,f
  2993  07DB  1803               	skipnc
  2994  07DC  0AA1               	incf	__Umul8_16@product+1,f
  2995  07DD  0823               	movf	__Umul8_16@word_mpld+1,w
  2996  07DE  07A1               	addwf	__Umul8_16@product+1,f
  2997  07DF                     l614:
  2998  07DF  3001               	movlw	1
  2999  07E0                     u3065:
  3000  07E0  1003               	clrc
  3001  07E1  0DA2               	rlf	__Umul8_16@word_mpld,f
  3002  07E2  0DA3               	rlf	__Umul8_16@word_mpld+1,f
  3003  07E3  3EFF               	addlw	-1
  3004  07E4  1D03               	skipz
  3005  07E5  2FE0               	goto	u3065
  3006  07E6  1003               	clrc
  3007  07E7  0CA4               	rrf	__Umul8_16@multiplier,f
  3008  07E8                     l2196:
  3009  07E8  0824               	movf	__Umul8_16@multiplier,w
  3010  07E9  1D03               	btfss	3,2
  3011  07EA  2FEC               	goto	u3071
  3012  07EB  2FED               	goto	u3070
  3013  07EC                     u3071:
  3014  07EC  2FD5               	goto	l2192
  3015  07ED                     u3070:
  3016  07ED                     l2198:
  3017  07ED  0821               	movf	__Umul8_16@product+1,w
  3018  07EE  00F4               	movwf	?__Umul8_16+1
  3019  07EF  0820               	movf	__Umul8_16@product,w
  3020  07F0  00F3               	movwf	?__Umul8_16
  3021  07F1                     l616:
  3022  07F1  0008               	return
  3023  07F2                     __end_of__Umul8_16:
  3024                           
  3025                           	psect	text7
  3026  0E23                     __ptext7:	
  3027 ;; *************** function ___fldiv *****************
  3028 ;; Defined at:
  3029 ;;		line 8 in file "C:\Program Files\Microchip\xc8\v2.35\pic\sources\c90\common\sprcdiv.c"
  3030 ;; Parameters:    Size  Location     Type
  3031 ;;  a               4   10[BANK0 ] unsigned int 
  3032 ;;  b               4   14[BANK0 ] unsigned int 
  3033 ;; Auto vars:     Size  Location     Type
  3034 ;;  grs             4   30[BANK0 ] unsigned long 
  3035 ;;  rem             4   23[BANK0 ] unsigned long 
  3036 ;;  new_exp         2   28[BANK0 ] int 
  3037 ;;  aexp            1   35[BANK0 ] unsigned char 
  3038 ;;  bexp            1   34[BANK0 ] unsigned char 
  3039 ;;  sign            1   27[BANK0 ] unsigned char 
  3040 ;; Return value:  Size  Location     Type
  3041 ;;                  4   10[BANK0 ] unsigned char 
  3042 ;; Registers used:
  3043 ;;		wreg, status,2, status,0, btemp+1
  3044 ;; Tracked objects:
  3045 ;;		On entry : 0/0
  3046 ;;		On exit  : 0/0
  3047 ;;		Unchanged: 0/0
  3048 ;; Data sizes:     COMMON   BANK0   BANK1   BANK3   BANK2
  3049 ;;      Params:         0       8       0       0       0
  3050 ;;      Locals:         0      13       0       0       0
  3051 ;;      Temps:          0       5       0       0       0
  3052 ;;      Totals:         0      26       0       0       0
  3053 ;;Total ram usage:       26 bytes
  3054 ;; Hardware stack levels used: 1
  3055 ;; Hardware stack levels required when called: 1
  3056 ;; This function calls:
  3057 ;;		Nothing
  3058 ;; This function is called by:
  3059 ;;		_map
  3060 ;; This function uses a non-reentrant model
  3061 ;;
  3062                           
  3063  0E23                     ___fldiv:	
  3064                           ;psect for function ___fldiv
  3065                           
  3066  0E23                     l2432:	
  3067                           ;incstack = 0
  3068                           ; Regs used in ___fldiv: [wreg+status,2+status,0+btemp+1]
  3069                           
  3070  0E23  1283               	bcf	3,5	;RP0=0, select bank0
  3071  0E24  1303               	bcf	3,6	;RP1=0, select bank0
  3072  0E25  0831               	movf	___fldiv@b+3,w
  3073  0E26  3980               	andlw	128
  3074  0E27  00B2               	movwf	??___fldiv
  3075  0E28  0832               	movf	??___fldiv,w
  3076  0E29  00BB               	movwf	___fldiv@sign
  3077  0E2A                     l2434:
  3078  0E2A  0831               	movf	___fldiv@b+3,w
  3079  0E2B  00B2               	movwf	??___fldiv
  3080  0E2C  0732               	addwf	??___fldiv,w
  3081  0E2D  00B3               	movwf	??___fldiv+1
  3082  0E2E  0833               	movf	??___fldiv+1,w
  3083  0E2F  00C2               	movwf	___fldiv@bexp
  3084  0E30                     l2436:
  3085  0E30  1FB0               	btfss	___fldiv@b+2,7
  3086  0E31  2E33               	goto	u3641
  3087  0E32  2E34               	goto	u3640
  3088  0E33                     u3641:
  3089  0E33  2E35               	goto	l2440
  3090  0E34                     u3640:
  3091  0E34                     l2438:
  3092  0E34  1442               	bsf	___fldiv@bexp,0
  3093  0E35                     l2440:
  3094  0E35  0842               	movf	___fldiv@bexp,w
  3095  0E36  1903               	btfsc	3,2
  3096  0E37  2E39               	goto	u3651
  3097  0E38  2E3A               	goto	u3650
  3098  0E39                     u3651:
  3099  0E39  2E4A               	goto	l2450
  3100  0E3A                     u3650:
  3101  0E3A                     l2442:
  3102  0E3A  0A42               	incf	___fldiv@bexp,w
  3103  0E3B  1D03               	btfss	3,2
  3104  0E3C  2E3E               	goto	u3661
  3105  0E3D  2E3F               	goto	u3660
  3106  0E3E                     u3661:
  3107  0E3E  2E47               	goto	l2446
  3108  0E3F                     u3660:
  3109  0E3F                     l2444:
  3110  0E3F  3000               	movlw	0
  3111  0E40  00B1               	movwf	___fldiv@b+3
  3112  0E41  3000               	movlw	0
  3113  0E42  00B0               	movwf	___fldiv@b+2
  3114  0E43  3000               	movlw	0
  3115  0E44  00AF               	movwf	___fldiv@b+1
  3116  0E45  3000               	movlw	0
  3117  0E46  00AE               	movwf	___fldiv@b
  3118  0E47                     l2446:
  3119  0E47  17B0               	bsf	___fldiv@b+2,7
  3120  0E48                     l2448:
  3121  0E48  01B1               	clrf	___fldiv@b+3
  3122  0E49  2E52               	goto	l2452
  3123  0E4A                     l2450:
  3124  0E4A  3000               	movlw	0
  3125  0E4B  00B1               	movwf	___fldiv@b+3
  3126  0E4C  3000               	movlw	0
  3127  0E4D  00B0               	movwf	___fldiv@b+2
  3128  0E4E  3000               	movlw	0
  3129  0E4F  00AF               	movwf	___fldiv@b+1
  3130  0E50  3000               	movlw	0
  3131  0E51  00AE               	movwf	___fldiv@b
  3132  0E52                     l2452:
  3133  0E52  082D               	movf	___fldiv@a+3,w
  3134  0E53  3980               	andlw	128
  3135  0E54  00B2               	movwf	??___fldiv
  3136  0E55  0832               	movf	??___fldiv,w
  3137  0E56  06BB               	xorwf	___fldiv@sign,f
  3138  0E57                     l2454:
  3139  0E57  082D               	movf	___fldiv@a+3,w
  3140  0E58  00B2               	movwf	??___fldiv
  3141  0E59  0732               	addwf	??___fldiv,w
  3142  0E5A  00B3               	movwf	??___fldiv+1
  3143  0E5B  0833               	movf	??___fldiv+1,w
  3144  0E5C  00C3               	movwf	___fldiv@aexp
  3145  0E5D                     l2456:
  3146  0E5D  1FAC               	btfss	___fldiv@a+2,7
  3147  0E5E  2E60               	goto	u3671
  3148  0E5F  2E61               	goto	u3670
  3149  0E60                     u3671:
  3150  0E60  2E62               	goto	l2460
  3151  0E61                     u3670:
  3152  0E61                     l2458:
  3153  0E61  1443               	bsf	___fldiv@aexp,0
  3154  0E62                     l2460:
  3155  0E62  0843               	movf	___fldiv@aexp,w
  3156  0E63  1903               	btfsc	3,2
  3157  0E64  2E66               	goto	u3681
  3158  0E65  2E67               	goto	u3680
  3159  0E66                     u3681:
  3160  0E66  2E77               	goto	l2470
  3161  0E67                     u3680:
  3162  0E67                     l2462:
  3163  0E67  0A43               	incf	___fldiv@aexp,w
  3164  0E68  1D03               	btfss	3,2
  3165  0E69  2E6B               	goto	u3691
  3166  0E6A  2E6C               	goto	u3690
  3167  0E6B                     u3691:
  3168  0E6B  2E74               	goto	l2466
  3169  0E6C                     u3690:
  3170  0E6C                     l2464:
  3171  0E6C  3000               	movlw	0
  3172  0E6D  00AD               	movwf	___fldiv@a+3
  3173  0E6E  3000               	movlw	0
  3174  0E6F  00AC               	movwf	___fldiv@a+2
  3175  0E70  3000               	movlw	0
  3176  0E71  00AB               	movwf	___fldiv@a+1
  3177  0E72  3000               	movlw	0
  3178  0E73  00AA               	movwf	___fldiv@a
  3179  0E74                     l2466:
  3180  0E74  17AC               	bsf	___fldiv@a+2,7
  3181  0E75                     l2468:
  3182  0E75  01AD               	clrf	___fldiv@a+3
  3183  0E76  2E7F               	goto	l555
  3184  0E77                     l2470:
  3185  0E77  3000               	movlw	0
  3186  0E78  00AD               	movwf	___fldiv@a+3
  3187  0E79  3000               	movlw	0
  3188  0E7A  00AC               	movwf	___fldiv@a+2
  3189  0E7B  3000               	movlw	0
  3190  0E7C  00AB               	movwf	___fldiv@a+1
  3191  0E7D  3000               	movlw	0
  3192  0E7E  00AA               	movwf	___fldiv@a
  3193  0E7F                     l555:
  3194  0E7F  082D               	movf	___fldiv@a+3,w
  3195  0E80  042C               	iorwf	___fldiv@a+2,w
  3196  0E81  042B               	iorwf	___fldiv@a+1,w
  3197  0E82  042A               	iorwf	___fldiv@a,w
  3198  0E83  1D03               	skipz
  3199  0E84  2E86               	goto	u3701
  3200  0E85  2E87               	goto	u3700
  3201  0E86                     u3701:
  3202  0E86  2EA0               	goto	l2480
  3203  0E87                     u3700:
  3204  0E87                     l2472:
  3205  0E87  3000               	movlw	0
  3206  0E88  00B1               	movwf	___fldiv@b+3
  3207  0E89  3000               	movlw	0
  3208  0E8A  00B0               	movwf	___fldiv@b+2
  3209  0E8B  3000               	movlw	0
  3210  0E8C  00AF               	movwf	___fldiv@b+1
  3211  0E8D  3000               	movlw	0
  3212  0E8E  00AE               	movwf	___fldiv@b
  3213  0E8F  3080               	movlw	128
  3214  0E90  04B0               	iorwf	___fldiv@b+2,f
  3215  0E91  307F               	movlw	127
  3216  0E92  04B1               	iorwf	___fldiv@b+3,f
  3217  0E93                     l2474:
  3218  0E93  083B               	movf	___fldiv@sign,w
  3219  0E94  00B2               	movwf	??___fldiv
  3220  0E95  0832               	movf	??___fldiv,w
  3221  0E96  04B1               	iorwf	___fldiv@b+3,f
  3222  0E97                     l2476:
  3223  0E97  0831               	movf	___fldiv@b+3,w
  3224  0E98  00AD               	movwf	?___fldiv+3
  3225  0E99  0830               	movf	___fldiv@b+2,w
  3226  0E9A  00AC               	movwf	?___fldiv+2
  3227  0E9B  082F               	movf	___fldiv@b+1,w
  3228  0E9C  00AB               	movwf	?___fldiv+1
  3229  0E9D  082E               	movf	___fldiv@b,w
  3230  0E9E  00AA               	movwf	?___fldiv
  3231  0E9F  2FFF               	goto	l557
  3232  0EA0                     l2480:
  3233  0EA0  0842               	movf	___fldiv@bexp,w
  3234  0EA1  1D03               	btfss	3,2
  3235  0EA2  2EA4               	goto	u3711
  3236  0EA3  2EA5               	goto	u3710
  3237  0EA4                     u3711:
  3238  0EA4  2EAE               	goto	l2486
  3239  0EA5                     u3710:
  3240  0EA5                     l2482:
  3241  0EA5  3000               	movlw	0
  3242  0EA6  00AD               	movwf	?___fldiv+3
  3243  0EA7  3000               	movlw	0
  3244  0EA8  00AC               	movwf	?___fldiv+2
  3245  0EA9  3000               	movlw	0
  3246  0EAA  00AB               	movwf	?___fldiv+1
  3247  0EAB  3000               	movlw	0
  3248  0EAC  00AA               	movwf	?___fldiv
  3249  0EAD  2FFF               	goto	l557
  3250  0EAE                     l2486:
  3251  0EAE  0842               	movf	___fldiv@bexp,w
  3252  0EAF  00B2               	movwf	??___fldiv
  3253  0EB0  01B3               	clrf	??___fldiv+1
  3254  0EB1  0833               	movf	??___fldiv+1,w
  3255  0EB2  00B5               	movwf	??___fldiv+3
  3256  0EB3  0843               	movf	___fldiv@aexp,w
  3257  0EB4  0232               	subwf	??___fldiv,w
  3258  0EB5  00B4               	movwf	??___fldiv+2
  3259  0EB6  1C03               	skipc
  3260  0EB7  03B5               	decf	??___fldiv+3,f
  3261  0EB8  0834               	movf	??___fldiv+2,w
  3262  0EB9  3E7F               	addlw	127
  3263  0EBA  00BC               	movwf	___fldiv@new_exp
  3264  0EBB  0835               	movf	??___fldiv+3,w
  3265  0EBC  1803               	skipnc
  3266  0EBD  3E01               	addlw	1
  3267  0EBE  3E00               	addlw	0
  3268  0EBF  00BD               	movwf	___fldiv@new_exp+1
  3269  0EC0                     l2488:
  3270  0EC0  0831               	movf	___fldiv@b+3,w
  3271  0EC1  00BA               	movwf	___fldiv@rem+3
  3272  0EC2  0830               	movf	___fldiv@b+2,w
  3273  0EC3  00B9               	movwf	___fldiv@rem+2
  3274  0EC4  082F               	movf	___fldiv@b+1,w
  3275  0EC5  00B8               	movwf	___fldiv@rem+1
  3276  0EC6  082E               	movf	___fldiv@b,w
  3277  0EC7  00B7               	movwf	___fldiv@rem
  3278  0EC8                     l2490:
  3279  0EC8  3000               	movlw	0
  3280  0EC9  00B1               	movwf	___fldiv@b+3
  3281  0ECA  3000               	movlw	0
  3282  0ECB  00B0               	movwf	___fldiv@b+2
  3283  0ECC  3000               	movlw	0
  3284  0ECD  00AF               	movwf	___fldiv@b+1
  3285  0ECE  3000               	movlw	0
  3286  0ECF  00AE               	movwf	___fldiv@b
  3287  0ED0                     l2492:
  3288  0ED0  3000               	movlw	0
  3289  0ED1  00C1               	movwf	___fldiv@grs+3
  3290  0ED2  3000               	movlw	0
  3291  0ED3  00C0               	movwf	___fldiv@grs+2
  3292  0ED4  3000               	movlw	0
  3293  0ED5  00BF               	movwf	___fldiv@grs+1
  3294  0ED6  3000               	movlw	0
  3295  0ED7  00BE               	movwf	___fldiv@grs
  3296  0ED8                     l2494:
  3297  0ED8  01C3               	clrf	___fldiv@aexp
  3298  0ED9  2F24               	goto	l2514
  3299  0EDA                     l2496:
  3300  0EDA  0843               	movf	___fldiv@aexp,w
  3301  0EDB  1903               	btfsc	3,2
  3302  0EDC  2EDE               	goto	u3721
  3303  0EDD  2EDF               	goto	u3720
  3304  0EDE                     u3721:
  3305  0EDE  2EFF               	goto	l2506
  3306  0EDF                     u3720:
  3307  0EDF                     l2498:
  3308  0EDF  3001               	movlw	1
  3309  0EE0  00B2               	movwf	??___fldiv
  3310  0EE1                     u3735:
  3311  0EE1  1003               	clrc
  3312  0EE2  0DB7               	rlf	___fldiv@rem,f
  3313  0EE3  0DB8               	rlf	___fldiv@rem+1,f
  3314  0EE4  0DB9               	rlf	___fldiv@rem+2,f
  3315  0EE5  0DBA               	rlf	___fldiv@rem+3,f
  3316  0EE6  0BB2               	decfsz	??___fldiv,f
  3317  0EE7  2EE1               	goto	u3735
  3318  0EE8  3001               	movlw	1
  3319  0EE9  00B2               	movwf	??___fldiv
  3320  0EEA                     u3745:
  3321  0EEA  1003               	clrc
  3322  0EEB  0DAE               	rlf	___fldiv@b,f
  3323  0EEC  0DAF               	rlf	___fldiv@b+1,f
  3324  0EED  0DB0               	rlf	___fldiv@b+2,f
  3325  0EEE  0DB1               	rlf	___fldiv@b+3,f
  3326  0EEF  0BB2               	decfsz	??___fldiv,f
  3327  0EF0  2EEA               	goto	u3745
  3328  0EF1                     l2500:
  3329  0EF1  1FC1               	btfss	___fldiv@grs+3,7
  3330  0EF2  2EF4               	goto	u3751
  3331  0EF3  2EF5               	goto	u3750
  3332  0EF4                     u3751:
  3333  0EF4  2EF6               	goto	l2504
  3334  0EF5                     u3750:
  3335  0EF5                     l2502:
  3336  0EF5  142E               	bsf	___fldiv@b,0
  3337  0EF6                     l2504:
  3338  0EF6  3001               	movlw	1
  3339  0EF7  00B2               	movwf	??___fldiv
  3340  0EF8                     u3765:
  3341  0EF8  1003               	clrc
  3342  0EF9  0DBE               	rlf	___fldiv@grs,f
  3343  0EFA  0DBF               	rlf	___fldiv@grs+1,f
  3344  0EFB  0DC0               	rlf	___fldiv@grs+2,f
  3345  0EFC  0DC1               	rlf	___fldiv@grs+3,f
  3346  0EFD  0BB2               	decfsz	??___fldiv,f
  3347  0EFE  2EF8               	goto	u3765
  3348  0EFF                     l2506:
  3349  0EFF  082D               	movf	___fldiv@a+3,w
  3350  0F00  023A               	subwf	___fldiv@rem+3,w
  3351  0F01  1D03               	skipz
  3352  0F02  2F0D               	goto	u3775
  3353  0F03  082C               	movf	___fldiv@a+2,w
  3354  0F04  0239               	subwf	___fldiv@rem+2,w
  3355  0F05  1D03               	skipz
  3356  0F06  2F0D               	goto	u3775
  3357  0F07  082B               	movf	___fldiv@a+1,w
  3358  0F08  0238               	subwf	___fldiv@rem+1,w
  3359  0F09  1D03               	skipz
  3360  0F0A  2F0D               	goto	u3775
  3361  0F0B  082A               	movf	___fldiv@a,w
  3362  0F0C  0237               	subwf	___fldiv@rem,w
  3363  0F0D                     u3775:
  3364  0F0D  1C03               	skipc
  3365  0F0E  2F10               	goto	u3771
  3366  0F0F  2F11               	goto	u3770
  3367  0F10                     u3771:
  3368  0F10  2F20               	goto	l2512
  3369  0F11                     u3770:
  3370  0F11                     l2508:
  3371  0F11  1741               	bsf	___fldiv@grs+3,6
  3372  0F12                     l2510:
  3373  0F12  082A               	movf	___fldiv@a,w
  3374  0F13  02B7               	subwf	___fldiv@rem,f
  3375  0F14  082B               	movf	___fldiv@a+1,w
  3376  0F15  1C03               	skipc
  3377  0F16  0F2B               	incfsz	___fldiv@a+1,w
  3378  0F17  02B8               	subwf	___fldiv@rem+1,f
  3379  0F18  082C               	movf	___fldiv@a+2,w
  3380  0F19  1C03               	skipc
  3381  0F1A  0F2C               	incfsz	___fldiv@a+2,w
  3382  0F1B  02B9               	subwf	___fldiv@rem+2,f
  3383  0F1C  082D               	movf	___fldiv@a+3,w
  3384  0F1D  1C03               	skipc
  3385  0F1E  0F2D               	incfsz	___fldiv@a+3,w
  3386  0F1F  02BA               	subwf	___fldiv@rem+3,f
  3387  0F20                     l2512:
  3388  0F20  3001               	movlw	1
  3389  0F21  00B2               	movwf	??___fldiv
  3390  0F22  0832               	movf	??___fldiv,w
  3391  0F23  07C3               	addwf	___fldiv@aexp,f
  3392  0F24                     l2514:
  3393  0F24  301A               	movlw	26
  3394  0F25  0243               	subwf	___fldiv@aexp,w
  3395  0F26  1C03               	skipc
  3396  0F27  2F29               	goto	u3781
  3397  0F28  2F2A               	goto	u3780
  3398  0F29                     u3781:
  3399  0F29  2EDA               	goto	l2496
  3400  0F2A                     u3780:
  3401  0F2A                     l2516:
  3402  0F2A  083A               	movf	___fldiv@rem+3,w
  3403  0F2B  0439               	iorwf	___fldiv@rem+2,w
  3404  0F2C  0438               	iorwf	___fldiv@rem+1,w
  3405  0F2D  0437               	iorwf	___fldiv@rem,w
  3406  0F2E  1903               	skipnz
  3407  0F2F  2F31               	goto	u3791
  3408  0F30  2F32               	goto	u3790
  3409  0F31                     u3791:
  3410  0F31  2F51               	goto	l2530
  3411  0F32                     u3790:
  3412  0F32                     l2518:
  3413  0F32  143E               	bsf	___fldiv@grs,0
  3414  0F33  2F51               	goto	l2530
  3415  0F34                     l2520:
  3416  0F34  3001               	movlw	1
  3417  0F35  00B2               	movwf	??___fldiv
  3418  0F36                     u3805:
  3419  0F36  1003               	clrc
  3420  0F37  0DAE               	rlf	___fldiv@b,f
  3421  0F38  0DAF               	rlf	___fldiv@b+1,f
  3422  0F39  0DB0               	rlf	___fldiv@b+2,f
  3423  0F3A  0DB1               	rlf	___fldiv@b+3,f
  3424  0F3B  0BB2               	decfsz	??___fldiv,f
  3425  0F3C  2F36               	goto	u3805
  3426  0F3D                     l2522:
  3427  0F3D  1FC1               	btfss	___fldiv@grs+3,7
  3428  0F3E  2F40               	goto	u3811
  3429  0F3F  2F41               	goto	u3810
  3430  0F40                     u3811:
  3431  0F40  2F42               	goto	l2526
  3432  0F41                     u3810:
  3433  0F41                     l2524:
  3434  0F41  142E               	bsf	___fldiv@b,0
  3435  0F42                     l2526:
  3436  0F42  3001               	movlw	1
  3437  0F43  00B2               	movwf	??___fldiv
  3438  0F44                     u3825:
  3439  0F44  1003               	clrc
  3440  0F45  0DBE               	rlf	___fldiv@grs,f
  3441  0F46  0DBF               	rlf	___fldiv@grs+1,f
  3442  0F47  0DC0               	rlf	___fldiv@grs+2,f
  3443  0F48  0DC1               	rlf	___fldiv@grs+3,f
  3444  0F49  0BB2               	decfsz	??___fldiv,f
  3445  0F4A  2F44               	goto	u3825
  3446  0F4B                     l2528:
  3447  0F4B  30FF               	movlw	255
  3448  0F4C  07BC               	addwf	___fldiv@new_exp,f
  3449  0F4D  1803               	skipnc
  3450  0F4E  0ABD               	incf	___fldiv@new_exp+1,f
  3451  0F4F  30FF               	movlw	255
  3452  0F50  07BD               	addwf	___fldiv@new_exp+1,f
  3453  0F51                     l2530:
  3454  0F51  1FB0               	btfss	___fldiv@b+2,7
  3455  0F52  2F54               	goto	u3831
  3456  0F53  2F55               	goto	u3830
  3457  0F54                     u3831:
  3458  0F54  2F34               	goto	l2520
  3459  0F55                     u3830:
  3460  0F55                     l2532:
  3461  0F55  01C3               	clrf	___fldiv@aexp
  3462  0F56                     l2534:
  3463  0F56  1FC1               	btfss	___fldiv@grs+3,7
  3464  0F57  2F59               	goto	u3841
  3465  0F58  2F5A               	goto	u3840
  3466  0F59                     u3841:
  3467  0F59  2F76               	goto	l2542
  3468  0F5A                     u3840:
  3469  0F5A                     l2536:
  3470  0F5A  30FF               	movlw	255
  3471  0F5B  053E               	andwf	___fldiv@grs,w
  3472  0F5C  00B2               	movwf	??___fldiv
  3473  0F5D  30FF               	movlw	255
  3474  0F5E  053F               	andwf	___fldiv@grs+1,w
  3475  0F5F  00B3               	movwf	??___fldiv+1
  3476  0F60  30FF               	movlw	255
  3477  0F61  0540               	andwf	___fldiv@grs+2,w
  3478  0F62  00B4               	movwf	??___fldiv+2
  3479  0F63  307F               	movlw	127
  3480  0F64  0541               	andwf	___fldiv@grs+3,w
  3481  0F65  00B5               	movwf	??___fldiv+3
  3482  0F66  0835               	movf	??___fldiv+3,w
  3483  0F67  0434               	iorwf	??___fldiv+2,w
  3484  0F68  0433               	iorwf	??___fldiv+1,w
  3485  0F69  0432               	iorwf	??___fldiv,w
  3486  0F6A  1903               	skipnz
  3487  0F6B  2F6D               	goto	u3851
  3488  0F6C  2F6E               	goto	u3850
  3489  0F6D                     u3851:
  3490  0F6D  2F71               	goto	l571
  3491  0F6E                     u3850:
  3492  0F6E                     l2538:
  3493  0F6E  01C3               	clrf	___fldiv@aexp
  3494  0F6F  0AC3               	incf	___fldiv@aexp,f
  3495  0F70  2F76               	goto	l2542
  3496  0F71                     l571:
  3497  0F71  1C2E               	btfss	___fldiv@b,0
  3498  0F72  2F74               	goto	u3861
  3499  0F73  2F75               	goto	u3860
  3500  0F74                     u3861:
  3501  0F74  2F76               	goto	l2542
  3502  0F75                     u3860:
  3503  0F75  2F6E               	goto	l2538
  3504  0F76                     l2542:
  3505  0F76  0843               	movf	___fldiv@aexp,w
  3506  0F77  1903               	btfsc	3,2
  3507  0F78  2F7A               	goto	u3871
  3508  0F79  2F7B               	goto	u3870
  3509  0F7A                     u3871:
  3510  0F7A  2FAC               	goto	l2552
  3511  0F7B                     u3870:
  3512  0F7B                     l2544:
  3513  0F7B  3001               	movlw	1
  3514  0F7C  07AE               	addwf	___fldiv@b,f
  3515  0F7D  3000               	movlw	0
  3516  0F7E  1803               	skipnc
  3517  0F7F  3001               	movlw	1
  3518  0F80  07AF               	addwf	___fldiv@b+1,f
  3519  0F81  3000               	movlw	0
  3520  0F82  1803               	skipnc
  3521  0F83  3001               	movlw	1
  3522  0F84  07B0               	addwf	___fldiv@b+2,f
  3523  0F85  3000               	movlw	0
  3524  0F86  1803               	skipnc
  3525  0F87  3001               	movlw	1
  3526  0F88  07B1               	addwf	___fldiv@b+3,f
  3527  0F89                     l2546:
  3528  0F89  1C31               	btfss	___fldiv@b+3,0
  3529  0F8A  2F8C               	goto	u3881
  3530  0F8B  2F8D               	goto	u3880
  3531  0F8C                     u3881:
  3532  0F8C  2FAC               	goto	l2552
  3533  0F8D                     u3880:
  3534  0F8D                     l2548:
  3535  0F8D  082E               	movf	___fldiv@b,w
  3536  0F8E  00B2               	movwf	??___fldiv
  3537  0F8F  082F               	movf	___fldiv@b+1,w
  3538  0F90  00B3               	movwf	??___fldiv+1
  3539  0F91  0830               	movf	___fldiv@b+2,w
  3540  0F92  00B4               	movwf	??___fldiv+2
  3541  0F93  0831               	movf	___fldiv@b+3,w
  3542  0F94  00B5               	movwf	??___fldiv+3
  3543  0F95  3001               	movlw	1
  3544  0F96  00B6               	movwf	??___fldiv+4
  3545  0F97                     u3895:
  3546  0F97  0D35               	rlf	??___fldiv+3,w
  3547  0F98  0CB5               	rrf	??___fldiv+3,f
  3548  0F99  0CB4               	rrf	??___fldiv+2,f
  3549  0F9A  0CB3               	rrf	??___fldiv+1,f
  3550  0F9B  0CB2               	rrf	??___fldiv,f
  3551  0F9C                     u3890:
  3552  0F9C  0BB6               	decfsz	??___fldiv+4,f
  3553  0F9D  2F97               	goto	u3895
  3554  0F9E  0835               	movf	??___fldiv+3,w
  3555  0F9F  00B1               	movwf	___fldiv@b+3
  3556  0FA0  0834               	movf	??___fldiv+2,w
  3557  0FA1  00B0               	movwf	___fldiv@b+2
  3558  0FA2  0833               	movf	??___fldiv+1,w
  3559  0FA3  00AF               	movwf	___fldiv@b+1
  3560  0FA4  0832               	movf	??___fldiv,w
  3561  0FA5  00AE               	movwf	___fldiv@b
  3562  0FA6                     l2550:
  3563  0FA6  3001               	movlw	1
  3564  0FA7  07BC               	addwf	___fldiv@new_exp,f
  3565  0FA8  1803               	skipnc
  3566  0FA9  0ABD               	incf	___fldiv@new_exp+1,f
  3567  0FAA  3000               	movlw	0
  3568  0FAB  07BD               	addwf	___fldiv@new_exp+1,f
  3569  0FAC                     l2552:
  3570  0FAC  083D               	movf	___fldiv@new_exp+1,w
  3571  0FAD  3A80               	xorlw	128
  3572  0FAE  00FF               	movwf	btemp+1
  3573  0FAF  3080               	movlw	128
  3574  0FB0  027F               	subwf	btemp+1,w
  3575  0FB1  1D03               	skipz
  3576  0FB2  2FB5               	goto	u3905
  3577  0FB3  30FF               	movlw	255
  3578  0FB4  023C               	subwf	___fldiv@new_exp,w
  3579  0FB5                     u3905:
  3580  0FB5  1C03               	skipc
  3581  0FB6  2FB8               	goto	u3901
  3582  0FB7  2FB9               	goto	u3900
  3583  0FB8                     u3901:
  3584  0FB8  2FC7               	goto	l2556
  3585  0FB9                     u3900:
  3586  0FB9                     l2554:
  3587  0FB9  30FF               	movlw	255
  3588  0FBA  1283               	bcf	3,5	;RP0=0, select bank0
  3589  0FBB  1303               	bcf	3,6	;RP1=0, select bank0
  3590  0FBC  00BC               	movwf	___fldiv@new_exp
  3591  0FBD  3000               	movlw	0
  3592  0FBE  00BD               	movwf	___fldiv@new_exp+1
  3593  0FBF  3000               	movlw	0
  3594  0FC0  00B1               	movwf	___fldiv@b+3
  3595  0FC1  3000               	movlw	0
  3596  0FC2  00B0               	movwf	___fldiv@b+2
  3597  0FC3  3000               	movlw	0
  3598  0FC4  00AF               	movwf	___fldiv@b+1
  3599  0FC5  3000               	movlw	0
  3600  0FC6  00AE               	movwf	___fldiv@b
  3601  0FC7                     l2556:
  3602  0FC7  1283               	bcf	3,5	;RP0=0, select bank0
  3603  0FC8  1303               	bcf	3,6	;RP1=0, select bank0
  3604  0FC9  083D               	movf	___fldiv@new_exp+1,w
  3605  0FCA  3A80               	xorlw	128
  3606  0FCB  00FF               	movwf	btemp+1
  3607  0FCC  3080               	movlw	128
  3608  0FCD  027F               	subwf	btemp+1,w
  3609  0FCE  1D03               	skipz
  3610  0FCF  2FD2               	goto	u3915
  3611  0FD0  3001               	movlw	1
  3612  0FD1  023C               	subwf	___fldiv@new_exp,w
  3613  0FD2                     u3915:
  3614  0FD2  1803               	skipnc
  3615  0FD3  2FD5               	goto	u3911
  3616  0FD4  2FD6               	goto	u3910
  3617  0FD5                     u3911:
  3618  0FD5  2FE3               	goto	l577
  3619  0FD6                     u3910:
  3620  0FD6                     l2558:
  3621  0FD6  1283               	bcf	3,5	;RP0=0, select bank0
  3622  0FD7  1303               	bcf	3,6	;RP1=0, select bank0
  3623  0FD8  01BC               	clrf	___fldiv@new_exp
  3624  0FD9  01BD               	clrf	___fldiv@new_exp+1
  3625  0FDA                     l2560:
  3626  0FDA  3000               	movlw	0
  3627  0FDB  00B1               	movwf	___fldiv@b+3
  3628  0FDC  3000               	movlw	0
  3629  0FDD  00B0               	movwf	___fldiv@b+2
  3630  0FDE  3000               	movlw	0
  3631  0FDF  00AF               	movwf	___fldiv@b+1
  3632  0FE0  3000               	movlw	0
  3633  0FE1  00AE               	movwf	___fldiv@b
  3634  0FE2                     l2562:
  3635  0FE2  01BB               	clrf	___fldiv@sign
  3636  0FE3                     l577:
  3637  0FE3  1283               	bcf	3,5	;RP0=0, select bank0
  3638  0FE4  1303               	bcf	3,6	;RP1=0, select bank0
  3639  0FE5  083C               	movf	___fldiv@new_exp,w
  3640  0FE6  00B2               	movwf	??___fldiv
  3641  0FE7  0832               	movf	??___fldiv,w
  3642  0FE8  00C2               	movwf	___fldiv@bexp
  3643  0FE9                     l2564:
  3644  0FE9  1C42               	btfss	___fldiv@bexp,0
  3645  0FEA  2FEC               	goto	u3921
  3646  0FEB  2FED               	goto	u3920
  3647  0FEC                     u3921:
  3648  0FEC  2FEF               	goto	l2568
  3649  0FED                     u3920:
  3650  0FED                     l2566:
  3651  0FED  17B0               	bsf	___fldiv@b+2,7
  3652  0FEE  2FF3               	goto	l579
  3653  0FEF                     l2568:
  3654  0FEF  307F               	movlw	127
  3655  0FF0  00B2               	movwf	??___fldiv
  3656  0FF1  0832               	movf	??___fldiv,w
  3657  0FF2  05B0               	andwf	___fldiv@b+2,f
  3658  0FF3                     l579:
  3659  0FF3  0842               	movf	___fldiv@bexp,w
  3660  0FF4  00B2               	movwf	??___fldiv
  3661  0FF5  1003               	clrc
  3662  0FF6  0C32               	rrf	??___fldiv,w
  3663  0FF7  00B3               	movwf	??___fldiv+1
  3664  0FF8  0833               	movf	??___fldiv+1,w
  3665  0FF9  00B1               	movwf	___fldiv@b+3
  3666  0FFA  083B               	movf	___fldiv@sign,w
  3667  0FFB  00B2               	movwf	??___fldiv
  3668  0FFC  0832               	movf	??___fldiv,w
  3669  0FFD  04B1               	iorwf	___fldiv@b+3,f
  3670  0FFE  2E97               	goto	l2476
  3671  0FFF                     l557:
  3672  0FFF  0008               	return
  3673  1000                     __end_of___fldiv:
  3674                           
  3675                           	psect	text8
  3676  0384                     __ptext8:	
  3677 ;; *************** function ___fladd *****************
  3678 ;; Defined at:
  3679 ;;		line 10 in file "C:\Program Files\Microchip\xc8\v2.35\pic\sources\c90\common\sprcadd.c"
  3680 ;; Parameters:    Size  Location     Type
  3681 ;;  b               4   62[BANK0 ] unsigned char 
  3682 ;;  a               4   66[BANK0 ] unsigned char 
  3683 ;; Auto vars:     Size  Location     Type
  3684 ;;  grs             1    3[BANK1 ] unsigned char 
  3685 ;;  bexp            1    2[BANK1 ] unsigned char 
  3686 ;;  aexp            1    1[BANK1 ] unsigned char 
  3687 ;;  signs           1    0[BANK1 ] unsigned char 
  3688 ;; Return value:  Size  Location     Type
  3689 ;;                  4   62[BANK0 ] unsigned char 
  3690 ;; Registers used:
  3691 ;;		wreg, status,2, status,0, btemp+1
  3692 ;; Tracked objects:
  3693 ;;		On entry : 0/0
  3694 ;;		On exit  : 0/0
  3695 ;;		Unchanged: 0/0
  3696 ;; Data sizes:     COMMON   BANK0   BANK1   BANK3   BANK2
  3697 ;;      Params:         0       8       0       0       0
  3698 ;;      Locals:         0       0       4       0       0
  3699 ;;      Temps:          0       8       0       0       0
  3700 ;;      Totals:         0      16       4       0       0
  3701 ;;Total ram usage:       20 bytes
  3702 ;; Hardware stack levels used: 1
  3703 ;; Hardware stack levels required when called: 1
  3704 ;; This function calls:
  3705 ;;		Nothing
  3706 ;; This function is called by:
  3707 ;;		_map
  3708 ;; This function uses a non-reentrant model
  3709 ;;
  3710                           
  3711  0384                     ___fladd:	
  3712                           ;psect for function ___fladd
  3713                           
  3714  0384                     l2238:	
  3715                           ;incstack = 0
  3716                           ; Regs used in ___fladd: [wreg+status,2+status,0+btemp+1]
  3717                           
  3718  0384  1283               	bcf	3,5	;RP0=0, select bank0
  3719  0385  1303               	bcf	3,6	;RP1=0, select bank0
  3720  0386  0861               	movf	___fladd@b+3,w
  3721  0387  3980               	andlw	128
  3722  0388  00E6               	movwf	??___fladd
  3723  0389  0866               	movf	??___fladd,w
  3724  038A  1683               	bsf	3,5	;RP0=1, select bank1
  3725  038B  1303               	bcf	3,6	;RP1=0, select bank1
  3726  038C  00A0               	movwf	___fladd@signs^(0+128)
  3727  038D                     l2240:
  3728  038D  1283               	bcf	3,5	;RP0=0, select bank0
  3729  038E  1303               	bcf	3,6	;RP1=0, select bank0
  3730  038F  0861               	movf	___fladd@b+3,w
  3731  0390  00E6               	movwf	??___fladd
  3732  0391  0766               	addwf	??___fladd,w
  3733  0392  00E7               	movwf	??___fladd+1
  3734  0393  0867               	movf	??___fladd+1,w
  3735  0394  1683               	bsf	3,5	;RP0=1, select bank1
  3736  0395  1303               	bcf	3,6	;RP1=0, select bank1
  3737  0396  00A2               	movwf	___fladd@bexp^(0+128)
  3738  0397                     l2242:
  3739  0397  1283               	bcf	3,5	;RP0=0, select bank0
  3740  0398  1303               	bcf	3,6	;RP1=0, select bank0
  3741  0399  1FE0               	btfss	___fladd@b+2,7
  3742  039A  2B9C               	goto	u3181
  3743  039B  2B9D               	goto	u3180
  3744  039C                     u3181:
  3745  039C  2BA0               	goto	l2246
  3746  039D                     u3180:
  3747  039D                     l2244:
  3748  039D  1683               	bsf	3,5	;RP0=1, select bank1
  3749  039E  1303               	bcf	3,6	;RP1=0, select bank1
  3750  039F  1422               	bsf	___fladd@bexp^(0+128),0
  3751  03A0                     l2246:
  3752  03A0  1683               	bsf	3,5	;RP0=1, select bank1
  3753  03A1  1303               	bcf	3,6	;RP1=0, select bank1
  3754  03A2  0822               	movf	___fladd@bexp^(0+128),w
  3755  03A3  1903               	btfsc	3,2
  3756  03A4  2BA6               	goto	u3191
  3757  03A5  2BA7               	goto	u3190
  3758  03A6                     u3191:
  3759  03A6  2BBA               	goto	l2256
  3760  03A7                     u3190:
  3761  03A7                     l2248:
  3762  03A7  0A22               	incf	___fladd@bexp^(0+128),w
  3763  03A8  1D03               	btfss	3,2
  3764  03A9  2BAB               	goto	u3201
  3765  03AA  2BAC               	goto	u3200
  3766  03AB                     u3201:
  3767  03AB  2BB6               	goto	l2252
  3768  03AC                     u3200:
  3769  03AC                     l2250:
  3770  03AC  3000               	movlw	0
  3771  03AD  1283               	bcf	3,5	;RP0=0, select bank0
  3772  03AE  1303               	bcf	3,6	;RP1=0, select bank0
  3773  03AF  00E1               	movwf	___fladd@b+3
  3774  03B0  3000               	movlw	0
  3775  03B1  00E0               	movwf	___fladd@b+2
  3776  03B2  3000               	movlw	0
  3777  03B3  00DF               	movwf	___fladd@b+1
  3778  03B4  3000               	movlw	0
  3779  03B5  00DE               	movwf	___fladd@b
  3780  03B6                     l2252:
  3781  03B6  1283               	bcf	3,5	;RP0=0, select bank0
  3782  03B7  17E0               	bsf	___fladd@b+2,7
  3783  03B8                     l2254:
  3784  03B8  01E1               	clrf	___fladd@b+3
  3785  03B9  2BC4               	goto	l2258
  3786  03BA                     l2256:
  3787  03BA  3000               	movlw	0
  3788  03BB  1283               	bcf	3,5	;RP0=0, select bank0
  3789  03BC  1303               	bcf	3,6	;RP1=0, select bank0
  3790  03BD  00E1               	movwf	___fladd@b+3
  3791  03BE  3000               	movlw	0
  3792  03BF  00E0               	movwf	___fladd@b+2
  3793  03C0  3000               	movlw	0
  3794  03C1  00DF               	movwf	___fladd@b+1
  3795  03C2  3000               	movlw	0
  3796  03C3  00DE               	movwf	___fladd@b
  3797  03C4                     l2258:
  3798  03C4  0865               	movf	___fladd@a+3,w
  3799  03C5  3980               	andlw	128
  3800  03C6  00E6               	movwf	??___fladd
  3801  03C7  0866               	movf	??___fladd,w
  3802  03C8  1683               	bsf	3,5	;RP0=1, select bank1
  3803  03C9  1303               	bcf	3,6	;RP1=0, select bank1
  3804  03CA  00A1               	movwf	___fladd@aexp^(0+128)
  3805  03CB                     l2260:
  3806  03CB  0821               	movf	___fladd@aexp^(0+128),w
  3807  03CC  0620               	xorwf	___fladd@signs^(0+128),w
  3808  03CD  1903               	skipnz
  3809  03CE  2BD0               	goto	u3211
  3810  03CF  2BD1               	goto	u3210
  3811  03D0                     u3211:
  3812  03D0  2BD2               	goto	l2264
  3813  03D1                     u3210:
  3814  03D1                     l2262:
  3815  03D1  1720               	bsf	___fladd@signs^(0+128),6
  3816  03D2                     l2264:
  3817  03D2  1283               	bcf	3,5	;RP0=0, select bank0
  3818  03D3  1303               	bcf	3,6	;RP1=0, select bank0
  3819  03D4  0865               	movf	___fladd@a+3,w
  3820  03D5  00E6               	movwf	??___fladd
  3821  03D6  0766               	addwf	??___fladd,w
  3822  03D7  00E7               	movwf	??___fladd+1
  3823  03D8  0867               	movf	??___fladd+1,w
  3824  03D9  1683               	bsf	3,5	;RP0=1, select bank1
  3825  03DA  1303               	bcf	3,6	;RP1=0, select bank1
  3826  03DB  00A1               	movwf	___fladd@aexp^(0+128)
  3827  03DC                     l2266:
  3828  03DC  1283               	bcf	3,5	;RP0=0, select bank0
  3829  03DD  1303               	bcf	3,6	;RP1=0, select bank0
  3830  03DE  1FE4               	btfss	___fladd@a+2,7
  3831  03DF  2BE1               	goto	u3221
  3832  03E0  2BE2               	goto	u3220
  3833  03E1                     u3221:
  3834  03E1  2BE5               	goto	l2270
  3835  03E2                     u3220:
  3836  03E2                     l2268:
  3837  03E2  1683               	bsf	3,5	;RP0=1, select bank1
  3838  03E3  1303               	bcf	3,6	;RP1=0, select bank1
  3839  03E4  1421               	bsf	___fladd@aexp^(0+128),0
  3840  03E5                     l2270:
  3841  03E5  1683               	bsf	3,5	;RP0=1, select bank1
  3842  03E6  1303               	bcf	3,6	;RP1=0, select bank1
  3843  03E7  0821               	movf	___fladd@aexp^(0+128),w
  3844  03E8  1903               	btfsc	3,2
  3845  03E9  2BEB               	goto	u3231
  3846  03EA  2BEC               	goto	u3230
  3847  03EB                     u3231:
  3848  03EB  2BFF               	goto	l2280
  3849  03EC                     u3230:
  3850  03EC                     l2272:
  3851  03EC  0A21               	incf	___fladd@aexp^(0+128),w
  3852  03ED  1D03               	btfss	3,2
  3853  03EE  2BF0               	goto	u3241
  3854  03EF  2BF1               	goto	u3240
  3855  03F0                     u3241:
  3856  03F0  2BFB               	goto	l2276
  3857  03F1                     u3240:
  3858  03F1                     l2274:
  3859  03F1  3000               	movlw	0
  3860  03F2  1283               	bcf	3,5	;RP0=0, select bank0
  3861  03F3  1303               	bcf	3,6	;RP1=0, select bank0
  3862  03F4  00E5               	movwf	___fladd@a+3
  3863  03F5  3000               	movlw	0
  3864  03F6  00E4               	movwf	___fladd@a+2
  3865  03F7  3000               	movlw	0
  3866  03F8  00E3               	movwf	___fladd@a+1
  3867  03F9  3000               	movlw	0
  3868  03FA  00E2               	movwf	___fladd@a
  3869  03FB                     l2276:
  3870  03FB  1283               	bcf	3,5	;RP0=0, select bank0
  3871  03FC  17E4               	bsf	___fladd@a+2,7
  3872  03FD                     l2278:
  3873  03FD  01E5               	clrf	___fladd@a+3
  3874  03FE  2C09               	goto	l499
  3875  03FF                     l2280:
  3876  03FF  3000               	movlw	0
  3877  0400  1283               	bcf	3,5	;RP0=0, select bank0
  3878  0401  1303               	bcf	3,6	;RP1=0, select bank0
  3879  0402  00E5               	movwf	___fladd@a+3
  3880  0403  3000               	movlw	0
  3881  0404  00E4               	movwf	___fladd@a+2
  3882  0405  3000               	movlw	0
  3883  0406  00E3               	movwf	___fladd@a+1
  3884  0407  3000               	movlw	0
  3885  0408  00E2               	movwf	___fladd@a
  3886  0409                     l499:
  3887  0409  1683               	bsf	3,5	;RP0=1, select bank1
  3888  040A  1303               	bcf	3,6	;RP1=0, select bank1
  3889  040B  0822               	movf	___fladd@bexp^(0+128),w
  3890  040C  0221               	subwf	___fladd@aexp^(0+128),w
  3891  040D  1803               	skipnc
  3892  040E  2C10               	goto	u3251
  3893  040F  2C11               	goto	u3250
  3894  0410                     u3251:
  3895  0410  2C87               	goto	l2316
  3896  0411                     u3250:
  3897  0411                     l2282:
  3898  0411  1F20               	btfss	___fladd@signs^(0+128),6
  3899  0412  2C14               	goto	u3261
  3900  0413  2C15               	goto	u3260
  3901  0414                     u3261:
  3902  0414  2C1D               	goto	l2286
  3903  0415                     u3260:
  3904  0415                     l2284:
  3905  0415  3080               	movlw	128
  3906  0416  1283               	bcf	3,5	;RP0=0, select bank0
  3907  0417  1303               	bcf	3,6	;RP1=0, select bank0
  3908  0418  00E6               	movwf	??___fladd
  3909  0419  0866               	movf	??___fladd,w
  3910  041A  1683               	bsf	3,5	;RP0=1, select bank1
  3911  041B  1303               	bcf	3,6	;RP1=0, select bank1
  3912  041C  06A0               	xorwf	___fladd@signs^(0+128),f
  3913  041D                     l2286:
  3914  041D  0822               	movf	___fladd@bexp^(0+128),w
  3915  041E  1283               	bcf	3,5	;RP0=0, select bank0
  3916  041F  1303               	bcf	3,6	;RP1=0, select bank0
  3917  0420  00E6               	movwf	??___fladd
  3918  0421  0866               	movf	??___fladd,w
  3919  0422  1683               	bsf	3,5	;RP0=1, select bank1
  3920  0423  1303               	bcf	3,6	;RP1=0, select bank1
  3921  0424  00A3               	movwf	___fladd@grs^(0+128)
  3922  0425                     l2288:
  3923  0425  0821               	movf	___fladd@aexp^(0+128),w
  3924  0426  1283               	bcf	3,5	;RP0=0, select bank0
  3925  0427  1303               	bcf	3,6	;RP1=0, select bank0
  3926  0428  00E6               	movwf	??___fladd
  3927  0429  0866               	movf	??___fladd,w
  3928  042A  1683               	bsf	3,5	;RP0=1, select bank1
  3929  042B  1303               	bcf	3,6	;RP1=0, select bank1
  3930  042C  00A2               	movwf	___fladd@bexp^(0+128)
  3931  042D                     l2290:
  3932  042D  0823               	movf	___fladd@grs^(0+128),w
  3933  042E  1283               	bcf	3,5	;RP0=0, select bank0
  3934  042F  1303               	bcf	3,6	;RP1=0, select bank0
  3935  0430  00E6               	movwf	??___fladd
  3936  0431  0866               	movf	??___fladd,w
  3937  0432  1683               	bsf	3,5	;RP0=1, select bank1
  3938  0433  1303               	bcf	3,6	;RP1=0, select bank1
  3939  0434  00A1               	movwf	___fladd@aexp^(0+128)
  3940  0435                     l2292:
  3941  0435  1283               	bcf	3,5	;RP0=0, select bank0
  3942  0436  1303               	bcf	3,6	;RP1=0, select bank0
  3943  0437  085E               	movf	___fladd@b,w
  3944  0438  00E6               	movwf	??___fladd
  3945  0439  0866               	movf	??___fladd,w
  3946  043A  1683               	bsf	3,5	;RP0=1, select bank1
  3947  043B  1303               	bcf	3,6	;RP1=0, select bank1
  3948  043C  00A3               	movwf	___fladd@grs^(0+128)
  3949  043D                     l2294:
  3950  043D  1283               	bcf	3,5	;RP0=0, select bank0
  3951  043E  1303               	bcf	3,6	;RP1=0, select bank0
  3952  043F  0862               	movf	___fladd@a,w
  3953  0440  00E6               	movwf	??___fladd
  3954  0441  0866               	movf	??___fladd,w
  3955  0442  00DE               	movwf	___fladd@b
  3956  0443                     l2296:
  3957  0443  1683               	bsf	3,5	;RP0=1, select bank1
  3958  0444  1303               	bcf	3,6	;RP1=0, select bank1
  3959  0445  0823               	movf	___fladd@grs^(0+128),w
  3960  0446  1283               	bcf	3,5	;RP0=0, select bank0
  3961  0447  1303               	bcf	3,6	;RP1=0, select bank0
  3962  0448  00E6               	movwf	??___fladd
  3963  0449  0866               	movf	??___fladd,w
  3964  044A  00E2               	movwf	___fladd@a
  3965  044B                     l2298:
  3966  044B  085F               	movf	___fladd@b+1,w
  3967  044C  00E6               	movwf	??___fladd
  3968  044D  0866               	movf	??___fladd,w
  3969  044E  1683               	bsf	3,5	;RP0=1, select bank1
  3970  044F  1303               	bcf	3,6	;RP1=0, select bank1
  3971  0450  00A3               	movwf	___fladd@grs^(0+128)
  3972  0451                     l2300:
  3973  0451  1283               	bcf	3,5	;RP0=0, select bank0
  3974  0452  1303               	bcf	3,6	;RP1=0, select bank0
  3975  0453  0863               	movf	___fladd@a+1,w
  3976  0454  00E6               	movwf	??___fladd
  3977  0455  0866               	movf	??___fladd,w
  3978  0456  00DF               	movwf	___fladd@b+1
  3979  0457                     l2302:
  3980  0457  1683               	bsf	3,5	;RP0=1, select bank1
  3981  0458  1303               	bcf	3,6	;RP1=0, select bank1
  3982  0459  0823               	movf	___fladd@grs^(0+128),w
  3983  045A  1283               	bcf	3,5	;RP0=0, select bank0
  3984  045B  1303               	bcf	3,6	;RP1=0, select bank0
  3985  045C  00E6               	movwf	??___fladd
  3986  045D  0866               	movf	??___fladd,w
  3987  045E  00E3               	movwf	___fladd@a+1
  3988  045F                     l2304:
  3989  045F  0860               	movf	___fladd@b+2,w
  3990  0460  00E6               	movwf	??___fladd
  3991  0461  0866               	movf	??___fladd,w
  3992  0462  1683               	bsf	3,5	;RP0=1, select bank1
  3993  0463  1303               	bcf	3,6	;RP1=0, select bank1
  3994  0464  00A3               	movwf	___fladd@grs^(0+128)
  3995  0465                     l2306:
  3996  0465  1283               	bcf	3,5	;RP0=0, select bank0
  3997  0466  1303               	bcf	3,6	;RP1=0, select bank0
  3998  0467  0864               	movf	___fladd@a+2,w
  3999  0468  00E6               	movwf	??___fladd
  4000  0469  0866               	movf	??___fladd,w
  4001  046A  00E0               	movwf	___fladd@b+2
  4002  046B                     l2308:
  4003  046B  1683               	bsf	3,5	;RP0=1, select bank1
  4004  046C  1303               	bcf	3,6	;RP1=0, select bank1
  4005  046D  0823               	movf	___fladd@grs^(0+128),w
  4006  046E  1283               	bcf	3,5	;RP0=0, select bank0
  4007  046F  1303               	bcf	3,6	;RP1=0, select bank0
  4008  0470  00E6               	movwf	??___fladd
  4009  0471  0866               	movf	??___fladd,w
  4010  0472  00E4               	movwf	___fladd@a+2
  4011  0473                     l2310:
  4012  0473  0861               	movf	___fladd@b+3,w
  4013  0474  00E6               	movwf	??___fladd
  4014  0475  0866               	movf	??___fladd,w
  4015  0476  1683               	bsf	3,5	;RP0=1, select bank1
  4016  0477  1303               	bcf	3,6	;RP1=0, select bank1
  4017  0478  00A3               	movwf	___fladd@grs^(0+128)
  4018  0479                     l2312:
  4019  0479  1283               	bcf	3,5	;RP0=0, select bank0
  4020  047A  1303               	bcf	3,6	;RP1=0, select bank0
  4021  047B  0865               	movf	___fladd@a+3,w
  4022  047C  00E6               	movwf	??___fladd
  4023  047D  0866               	movf	??___fladd,w
  4024  047E  00E1               	movwf	___fladd@b+3
  4025  047F                     l2314:
  4026  047F  1683               	bsf	3,5	;RP0=1, select bank1
  4027  0480  1303               	bcf	3,6	;RP1=0, select bank1
  4028  0481  0823               	movf	___fladd@grs^(0+128),w
  4029  0482  1283               	bcf	3,5	;RP0=0, select bank0
  4030  0483  1303               	bcf	3,6	;RP1=0, select bank0
  4031  0484  00E6               	movwf	??___fladd
  4032  0485  0866               	movf	??___fladd,w
  4033  0486  00E5               	movwf	___fladd@a+3
  4034  0487                     l2316:
  4035  0487  1683               	bsf	3,5	;RP0=1, select bank1
  4036  0488  1303               	bcf	3,6	;RP1=0, select bank1
  4037  0489  01A3               	clrf	___fladd@grs^(0+128)
  4038  048A                     l2318:
  4039  048A  0821               	movf	___fladd@aexp^(0+128),w
  4040  048B  1283               	bcf	3,5	;RP0=0, select bank0
  4041  048C  1303               	bcf	3,6	;RP1=0, select bank0
  4042  048D  00E6               	movwf	??___fladd
  4043  048E  01E7               	clrf	??___fladd+1
  4044  048F  0867               	movf	??___fladd+1,w
  4045  0490  00E9               	movwf	??___fladd+3
  4046  0491  1683               	bsf	3,5	;RP0=1, select bank1
  4047  0492  1303               	bcf	3,6	;RP1=0, select bank1
  4048  0493  0822               	movf	___fladd@bexp^(0+128),w
  4049  0494  1283               	bcf	3,5	;RP0=0, select bank0
  4050  0495  1303               	bcf	3,6	;RP1=0, select bank0
  4051  0496  0266               	subwf	??___fladd,w
  4052  0497  00E8               	movwf	??___fladd+2
  4053  0498  1C03               	skipc
  4054  0499  03E9               	decf	??___fladd+3,f
  4055  049A  0869               	movf	??___fladd+3,w
  4056  049B  3A80               	xorlw	128
  4057  049C  00FF               	movwf	btemp+1
  4058  049D  3080               	movlw	128
  4059  049E  027F               	subwf	btemp+1,w
  4060  049F  1D03               	skipz
  4061  04A0  2CA3               	goto	u3275
  4062  04A1  301A               	movlw	26
  4063  04A2  0268               	subwf	??___fladd+2,w
  4064  04A3                     u3275:
  4065  04A3  1C03               	skipc
  4066  04A4  2CA6               	goto	u3271
  4067  04A5  2CA7               	goto	u3270
  4068  04A6                     u3271:
  4069  04A6  2CF9               	goto	l2334
  4070  04A7                     u3270:
  4071  04A7                     l2320:
  4072  04A7  1283               	bcf	3,5	;RP0=0, select bank0
  4073  04A8  1303               	bcf	3,6	;RP1=0, select bank0
  4074  04A9  0861               	movf	___fladd@b+3,w
  4075  04AA  0460               	iorwf	___fladd@b+2,w
  4076  04AB  045F               	iorwf	___fladd@b+1,w
  4077  04AC  045E               	iorwf	___fladd@b,w
  4078  04AD  1D03               	skipz
  4079  04AE  2CB0               	goto	u3281
  4080  04AF  2CB2               	goto	u3280
  4081  04B0                     u3281:
  4082  04B0  3001               	movlw	1
  4083  04B1  2CB3               	goto	u3290
  4084  04B2                     u3280:
  4085  04B2  3000               	movlw	0
  4086  04B3                     u3290:
  4087  04B3  00E6               	movwf	??___fladd
  4088  04B4  0866               	movf	??___fladd,w
  4089  04B5  1683               	bsf	3,5	;RP0=1, select bank1
  4090  04B6  1303               	bcf	3,6	;RP1=0, select bank1
  4091  04B7  00A3               	movwf	___fladd@grs^(0+128)
  4092  04B8  3000               	movlw	0
  4093  04B9  1283               	bcf	3,5	;RP0=0, select bank0
  4094  04BA  1303               	bcf	3,6	;RP1=0, select bank0
  4095  04BB  00E1               	movwf	___fladd@b+3
  4096  04BC  3000               	movlw	0
  4097  04BD  00E0               	movwf	___fladd@b+2
  4098  04BE  3000               	movlw	0
  4099  04BF  00DF               	movwf	___fladd@b+1
  4100  04C0  3000               	movlw	0
  4101  04C1  00DE               	movwf	___fladd@b
  4102  04C2  1683               	bsf	3,5	;RP0=1, select bank1
  4103  04C3  1303               	bcf	3,6	;RP1=0, select bank1
  4104  04C4  0821               	movf	___fladd@aexp^(0+128),w
  4105  04C5  1283               	bcf	3,5	;RP0=0, select bank0
  4106  04C6  1303               	bcf	3,6	;RP1=0, select bank0
  4107  04C7  00E6               	movwf	??___fladd
  4108  04C8  0866               	movf	??___fladd,w
  4109  04C9  1683               	bsf	3,5	;RP0=1, select bank1
  4110  04CA  1303               	bcf	3,6	;RP1=0, select bank1
  4111  04CB  00A2               	movwf	___fladd@bexp^(0+128)
  4112  04CC  2D01               	goto	l503
  4113  04CD                     l505:
  4114  04CD  1C23               	btfss	___fladd@grs^(0+128),0
  4115  04CE  2CD0               	goto	u3301
  4116  04CF  2CD1               	goto	u3300
  4117  04D0                     u3301:
  4118  04D0  2CDE               	goto	l2324
  4119  04D1                     u3300:
  4120  04D1                     l2322:
  4121  04D1  0823               	movf	___fladd@grs^(0+128),w
  4122  04D2  1283               	bcf	3,5	;RP0=0, select bank0
  4123  04D3  1303               	bcf	3,6	;RP1=0, select bank0
  4124  04D4  00E6               	movwf	??___fladd
  4125  04D5  1003               	clrc
  4126  04D6  0C66               	rrf	??___fladd,w
  4127  04D7  3801               	iorlw	1
  4128  04D8  00E7               	movwf	??___fladd+1
  4129  04D9  0867               	movf	??___fladd+1,w
  4130  04DA  1683               	bsf	3,5	;RP0=1, select bank1
  4131  04DB  1303               	bcf	3,6	;RP1=0, select bank1
  4132  04DC  00A3               	movwf	___fladd@grs^(0+128)
  4133  04DD  2CE0               	goto	l2326
  4134  04DE                     l2324:
  4135  04DE  1003               	clrc
  4136  04DF  0CA3               	rrf	___fladd@grs^(0+128),f
  4137  04E0                     l2326:
  4138  04E0  1283               	bcf	3,5	;RP0=0, select bank0
  4139  04E1  1303               	bcf	3,6	;RP1=0, select bank0
  4140  04E2  1C5E               	btfss	___fladd@b,0
  4141  04E3  2CE5               	goto	u3311
  4142  04E4  2CE6               	goto	u3310
  4143  04E5                     u3311:
  4144  04E5  2CE9               	goto	l2330
  4145  04E6                     u3310:
  4146  04E6                     l2328:
  4147  04E6  1683               	bsf	3,5	;RP0=1, select bank1
  4148  04E7  1303               	bcf	3,6	;RP1=0, select bank1
  4149  04E8  17A3               	bsf	___fladd@grs^(0+128),7
  4150  04E9                     l2330:
  4151  04E9  3001               	movlw	1
  4152  04EA  1283               	bcf	3,5	;RP0=0, select bank0
  4153  04EB  00E6               	movwf	??___fladd
  4154  04EC                     u3325:
  4155  04EC  0D61               	rlf	___fladd@b+3,w
  4156  04ED  0CE1               	rrf	___fladd@b+3,f
  4157  04EE  0CE0               	rrf	___fladd@b+2,f
  4158  04EF  0CDF               	rrf	___fladd@b+1,f
  4159  04F0  0CDE               	rrf	___fladd@b,f
  4160  04F1  0BE6               	decfsz	??___fladd& (0+127),f
  4161  04F2  2CEC               	goto	u3325
  4162  04F3                     l2332:
  4163  04F3  3001               	movlw	1
  4164  04F4  00E6               	movwf	??___fladd
  4165  04F5  0866               	movf	??___fladd,w
  4166  04F6  1683               	bsf	3,5	;RP0=1, select bank1
  4167  04F7  1303               	bcf	3,6	;RP1=0, select bank1
  4168  04F8  07A2               	addwf	___fladd@bexp^(0+128),f
  4169  04F9                     l2334:
  4170  04F9  1683               	bsf	3,5	;RP0=1, select bank1
  4171  04FA  1303               	bcf	3,6	;RP1=0, select bank1
  4172  04FB  0821               	movf	___fladd@aexp^(0+128),w
  4173  04FC  0222               	subwf	___fladd@bexp^(0+128),w
  4174  04FD  1C03               	skipc
  4175  04FE  2D00               	goto	u3331
  4176  04FF  2D01               	goto	u3330
  4177  0500                     u3331:
  4178  0500  2CCD               	goto	l505
  4179  0501                     u3330:
  4180  0501                     l503:
  4181  0501  1B20               	btfsc	___fladd@signs^(0+128),6
  4182  0502  2D04               	goto	u3341
  4183  0503  2D05               	goto	u3340
  4184  0504                     u3341:
  4185  0504  2D61               	goto	l2360
  4186  0505                     u3340:
  4187  0505                     l2336:
  4188  0505  0822               	movf	___fladd@bexp^(0+128),w
  4189  0506  1D03               	btfss	3,2
  4190  0507  2D09               	goto	u3351
  4191  0508  2D0A               	goto	u3350
  4192  0509                     u3351:
  4193  0509  2D15               	goto	l2342
  4194  050A                     u3350:
  4195  050A                     l2338:
  4196  050A  3000               	movlw	0
  4197  050B  1283               	bcf	3,5	;RP0=0, select bank0
  4198  050C  1303               	bcf	3,6	;RP1=0, select bank0
  4199  050D  00E1               	movwf	?___fladd+3
  4200  050E  3000               	movlw	0
  4201  050F  00E0               	movwf	?___fladd+2
  4202  0510  3000               	movlw	0
  4203  0511  00DF               	movwf	?___fladd+1
  4204  0512  3000               	movlw	0
  4205  0513  00DE               	movwf	?___fladd
  4206  0514  2EC3               	goto	l512
  4207  0515                     l2342:
  4208  0515  1283               	bcf	3,5	;RP0=0, select bank0
  4209  0516  1303               	bcf	3,6	;RP1=0, select bank0
  4210  0517  0862               	movf	___fladd@a,w
  4211  0518  07DE               	addwf	___fladd@b,f
  4212  0519  0863               	movf	___fladd@a+1,w
  4213  051A  1103               	clrz
  4214  051B  1803               	skipnc
  4215  051C  3E01               	addlw	1
  4216  051D  1903               	skipnz
  4217  051E  2D20               	goto	u3361
  4218  051F  07DF               	addwf	___fladd@b+1,f
  4219  0520                     u3361:
  4220  0520  0864               	movf	___fladd@a+2,w
  4221  0521  1103               	clrz
  4222  0522  1803               	skipnc
  4223  0523  3E01               	addlw	1
  4224  0524  1903               	skipnz
  4225  0525  2D27               	goto	u3362
  4226  0526  07E0               	addwf	___fladd@b+2,f
  4227  0527                     u3362:
  4228  0527  0865               	movf	___fladd@a+3,w
  4229  0528  1103               	clrz
  4230  0529  1803               	skipnc
  4231  052A  3E01               	addlw	1
  4232  052B  1903               	skipnz
  4233  052C  2D2E               	goto	u3363
  4234  052D  07E1               	addwf	___fladd@b+3,f
  4235  052E                     u3363:
  4236  052E                     l2344:
  4237  052E  1C61               	btfss	___fladd@b+3,0
  4238  052F  2D31               	goto	u3371
  4239  0530  2D32               	goto	u3370
  4240  0531                     u3371:
  4241  0531  2E27               	goto	l2394
  4242  0532                     u3370:
  4243  0532                     l2346:
  4244  0532  1683               	bsf	3,5	;RP0=1, select bank1
  4245  0533  1303               	bcf	3,6	;RP1=0, select bank1
  4246  0534  1C23               	btfss	___fladd@grs^(0+128),0
  4247  0535  2D37               	goto	u3381
  4248  0536  2D38               	goto	u3380
  4249  0537                     u3381:
  4250  0537  2D45               	goto	l2350
  4251  0538                     u3380:
  4252  0538                     l2348:
  4253  0538  0823               	movf	___fladd@grs^(0+128),w
  4254  0539  1283               	bcf	3,5	;RP0=0, select bank0
  4255  053A  1303               	bcf	3,6	;RP1=0, select bank0
  4256  053B  00E6               	movwf	??___fladd
  4257  053C  1003               	clrc
  4258  053D  0C66               	rrf	??___fladd,w
  4259  053E  3801               	iorlw	1
  4260  053F  00E7               	movwf	??___fladd+1
  4261  0540  0867               	movf	??___fladd+1,w
  4262  0541  1683               	bsf	3,5	;RP0=1, select bank1
  4263  0542  1303               	bcf	3,6	;RP1=0, select bank1
  4264  0543  00A3               	movwf	___fladd@grs^(0+128)
  4265  0544  2D47               	goto	l2352
  4266  0545                     l2350:
  4267  0545  1003               	clrc
  4268  0546  0CA3               	rrf	___fladd@grs^(0+128),f
  4269  0547                     l2352:
  4270  0547  1283               	bcf	3,5	;RP0=0, select bank0
  4271  0548  1303               	bcf	3,6	;RP1=0, select bank0
  4272  0549  1C5E               	btfss	___fladd@b,0
  4273  054A  2D4C               	goto	u3391
  4274  054B  2D4D               	goto	u3390
  4275  054C                     u3391:
  4276  054C  2D50               	goto	l2356
  4277  054D                     u3390:
  4278  054D                     l2354:
  4279  054D  1683               	bsf	3,5	;RP0=1, select bank1
  4280  054E  1303               	bcf	3,6	;RP1=0, select bank1
  4281  054F  17A3               	bsf	___fladd@grs^(0+128),7
  4282  0550                     l2356:
  4283  0550  3001               	movlw	1
  4284  0551  1283               	bcf	3,5	;RP0=0, select bank0
  4285  0552  00E6               	movwf	??___fladd
  4286  0553                     u3405:
  4287  0553  0D61               	rlf	___fladd@b+3,w
  4288  0554  0CE1               	rrf	___fladd@b+3,f
  4289  0555  0CE0               	rrf	___fladd@b+2,f
  4290  0556  0CDF               	rrf	___fladd@b+1,f
  4291  0557  0CDE               	rrf	___fladd@b,f
  4292  0558  0BE6               	decfsz	??___fladd& (0+127),f
  4293  0559  2D53               	goto	u3405
  4294  055A                     l2358:
  4295  055A  3001               	movlw	1
  4296  055B  00E6               	movwf	??___fladd
  4297  055C  0866               	movf	??___fladd,w
  4298  055D  1683               	bsf	3,5	;RP0=1, select bank1
  4299  055E  1303               	bcf	3,6	;RP1=0, select bank1
  4300  055F  07A2               	addwf	___fladd@bexp^(0+128),f
  4301  0560  2E27               	goto	l2394
  4302  0561                     l2360:
  4303  0561  1283               	bcf	3,5	;RP0=0, select bank0
  4304  0562  1303               	bcf	3,6	;RP1=0, select bank0
  4305  0563  0861               	movf	___fladd@b+3,w
  4306  0564  3A80               	xorlw	128
  4307  0565  00FF               	movwf	btemp+1
  4308  0566  0865               	movf	___fladd@a+3,w
  4309  0567  3A80               	xorlw	128
  4310  0568  027F               	subwf	btemp+1,w
  4311  0569  1D03               	skipz
  4312  056A  2D75               	goto	u3413
  4313  056B  0864               	movf	___fladd@a+2,w
  4314  056C  0260               	subwf	___fladd@b+2,w
  4315  056D  1D03               	skipz
  4316  056E  2D75               	goto	u3413
  4317  056F  0863               	movf	___fladd@a+1,w
  4318  0570  025F               	subwf	___fladd@b+1,w
  4319  0571  1D03               	skipz
  4320  0572  2D75               	goto	u3413
  4321  0573  0862               	movf	___fladd@a,w
  4322  0574  025E               	subwf	___fladd@b,w
  4323  0575                     u3413:
  4324  0575  1803               	skipnc
  4325  0576  2D78               	goto	u3411
  4326  0577  2D79               	goto	u3410
  4327  0578                     u3411:
  4328  0578  2DD5               	goto	l2370
  4329  0579                     u3410:
  4330  0579                     l2362:
  4331  0579  30FF               	movlw	255
  4332  057A  00E6               	movwf	??___fladd
  4333  057B  30FF               	movlw	255
  4334  057C  00E7               	movwf	??___fladd+1
  4335  057D  30FF               	movlw	255
  4336  057E  00E8               	movwf	??___fladd+2
  4337  057F  30FF               	movlw	255
  4338  0580  00E9               	movwf	??___fladd+3
  4339  0581  0862               	movf	___fladd@a,w
  4340  0582  00EA               	movwf	??___fladd+4
  4341  0583  0863               	movf	___fladd@a+1,w
  4342  0584  00EB               	movwf	??___fladd+5
  4343  0585  0864               	movf	___fladd@a+2,w
  4344  0586  00EC               	movwf	??___fladd+6
  4345  0587  0865               	movf	___fladd@a+3,w
  4346  0588  00ED               	movwf	??___fladd+7
  4347  0589  085E               	movf	___fladd@b,w
  4348  058A  02EA               	subwf	??___fladd+4,f
  4349  058B  085F               	movf	___fladd@b+1,w
  4350  058C  1C03               	skipc
  4351  058D  0F5F               	incfsz	___fladd@b+1,w
  4352  058E  2D90               	goto	u3421
  4353  058F  2D91               	goto	u3422
  4354  0590                     u3421:
  4355  0590  02EB               	subwf	??___fladd+5,f
  4356  0591                     u3422:
  4357  0591  0860               	movf	___fladd@b+2,w
  4358  0592  1C03               	skipc
  4359  0593  0F60               	incfsz	___fladd@b+2,w
  4360  0594  2D96               	goto	u3423
  4361  0595  2D97               	goto	u3424
  4362  0596                     u3423:
  4363  0596  02EC               	subwf	??___fladd+6,f
  4364  0597                     u3424:
  4365  0597  0861               	movf	___fladd@b+3,w
  4366  0598  1C03               	skipc
  4367  0599  0F61               	incfsz	___fladd@b+3,w
  4368  059A  2D9C               	goto	u3425
  4369  059B  2D9D               	goto	u3426
  4370  059C                     u3425:
  4371  059C  02ED               	subwf	??___fladd+7,f
  4372  059D                     u3426:
  4373  059D  086A               	movf	??___fladd+4,w
  4374  059E  07E6               	addwf	??___fladd,f
  4375  059F  086B               	movf	??___fladd+5,w
  4376  05A0  1803               	skipnc
  4377  05A1  0F6B               	incfsz	??___fladd+5,w
  4378  05A2  2DA4               	goto	u3430
  4379  05A3  2DA5               	goto	u3431
  4380  05A4                     u3430:
  4381  05A4  07E7               	addwf	??___fladd+1,f
  4382  05A5                     u3431:
  4383  05A5  086C               	movf	??___fladd+6,w
  4384  05A6  1803               	skipnc
  4385  05A7  0F6C               	incfsz	??___fladd+6,w
  4386  05A8  2DAA               	goto	u3432
  4387  05A9  2DAB               	goto	u3433
  4388  05AA                     u3432:
  4389  05AA  07E8               	addwf	??___fladd+2,f
  4390  05AB                     u3433:
  4391  05AB  086D               	movf	??___fladd+7,w
  4392  05AC  1803               	skipnc
  4393  05AD  0A6D               	incf	??___fladd+7,w
  4394  05AE  07E9               	addwf	??___fladd+3,f
  4395  05AF  0869               	movf	??___fladd+3,w
  4396  05B0  00E1               	movwf	___fladd@b+3
  4397  05B1  0868               	movf	??___fladd+2,w
  4398  05B2  00E0               	movwf	___fladd@b+2
  4399  05B3  0867               	movf	??___fladd+1,w
  4400  05B4  00DF               	movwf	___fladd@b+1
  4401  05B5  0866               	movf	??___fladd,w
  4402  05B6  00DE               	movwf	___fladd@b
  4403  05B7                     l2364:
  4404  05B7  3080               	movlw	128
  4405  05B8  00E6               	movwf	??___fladd
  4406  05B9  0866               	movf	??___fladd,w
  4407  05BA  1683               	bsf	3,5	;RP0=1, select bank1
  4408  05BB  1303               	bcf	3,6	;RP1=0, select bank1
  4409  05BC  06A0               	xorwf	___fladd@signs^(0+128),f
  4410  05BD  09A3               	comf	___fladd@grs^(0+128),f
  4411  05BE  0AA3               	incf	___fladd@grs^(0+128),f
  4412  05BF                     l2366:
  4413  05BF  0823               	movf	___fladd@grs^(0+128),w
  4414  05C0  1D03               	btfss	3,2
  4415  05C1  2DC3               	goto	u3441
  4416  05C2  2DC4               	goto	u3440
  4417  05C3                     u3441:
  4418  05C3  2DE3               	goto	l520
  4419  05C4                     u3440:
  4420  05C4                     l2368:
  4421  05C4  3001               	movlw	1
  4422  05C5  1283               	bcf	3,5	;RP0=0, select bank0
  4423  05C6  1303               	bcf	3,6	;RP1=0, select bank0
  4424  05C7  07DE               	addwf	___fladd@b,f
  4425  05C8  3000               	movlw	0
  4426  05C9  1803               	skipnc
  4427  05CA  3001               	movlw	1
  4428  05CB  07DF               	addwf	___fladd@b+1,f
  4429  05CC  3000               	movlw	0
  4430  05CD  1803               	skipnc
  4431  05CE  3001               	movlw	1
  4432  05CF  07E0               	addwf	___fladd@b+2,f
  4433  05D0  3000               	movlw	0
  4434  05D1  1803               	skipnc
  4435  05D2  3001               	movlw	1
  4436  05D3  07E1               	addwf	___fladd@b+3,f
  4437  05D4  2DE3               	goto	l520
  4438  05D5                     l2370:
  4439  05D5  0862               	movf	___fladd@a,w
  4440  05D6  02DE               	subwf	___fladd@b,f
  4441  05D7  0863               	movf	___fladd@a+1,w
  4442  05D8  1C03               	skipc
  4443  05D9  0F63               	incfsz	___fladd@a+1,w
  4444  05DA  02DF               	subwf	___fladd@b+1,f
  4445  05DB  0864               	movf	___fladd@a+2,w
  4446  05DC  1C03               	skipc
  4447  05DD  0F64               	incfsz	___fladd@a+2,w
  4448  05DE  02E0               	subwf	___fladd@b+2,f
  4449  05DF  0865               	movf	___fladd@a+3,w
  4450  05E0  1C03               	skipc
  4451  05E1  0F65               	incfsz	___fladd@a+3,w
  4452  05E2  02E1               	subwf	___fladd@b+3,f
  4453  05E3                     l520:
  4454  05E3  1283               	bcf	3,5	;RP0=0, select bank0
  4455  05E4  0861               	movf	___fladd@b+3,w
  4456  05E5  0460               	iorwf	___fladd@b+2,w
  4457  05E6  045F               	iorwf	___fladd@b+1,w
  4458  05E7  045E               	iorwf	___fladd@b,w
  4459  05E8  1D03               	skipz
  4460  05E9  2DEB               	goto	u3451
  4461  05EA  2DEC               	goto	u3450
  4462  05EB                     u3451:
  4463  05EB  2E22               	goto	l2392
  4464  05EC                     u3450:
  4465  05EC                     l2372:
  4466  05EC  1683               	bsf	3,5	;RP0=1, select bank1
  4467  05ED  1303               	bcf	3,6	;RP1=0, select bank1
  4468  05EE  0823               	movf	___fladd@grs^(0+128),w
  4469  05EF  1D03               	btfss	3,2
  4470  05F0  2DF2               	goto	u3461
  4471  05F1  2DF3               	goto	u3460
  4472  05F2                     u3461:
  4473  05F2  2E22               	goto	l2392
  4474  05F3                     u3460:
  4475  05F3                     l2374:
  4476  05F3  3000               	movlw	0
  4477  05F4  1283               	bcf	3,5	;RP0=0, select bank0
  4478  05F5  1303               	bcf	3,6	;RP1=0, select bank0
  4479  05F6  00E1               	movwf	?___fladd+3
  4480  05F7  3000               	movlw	0
  4481  05F8  00E0               	movwf	?___fladd+2
  4482  05F9  3000               	movlw	0
  4483  05FA  00DF               	movwf	?___fladd+1
  4484  05FB  3000               	movlw	0
  4485  05FC  00DE               	movwf	?___fladd
  4486  05FD  2EC3               	goto	l512
  4487  05FE                     l2378:
  4488  05FE  3001               	movlw	1
  4489  05FF  00E6               	movwf	??___fladd
  4490  0600                     u3475:
  4491  0600  1003               	clrc
  4492  0601  0DDE               	rlf	___fladd@b,f
  4493  0602  0DDF               	rlf	___fladd@b+1,f
  4494  0603  0DE0               	rlf	___fladd@b+2,f
  4495  0604  0DE1               	rlf	___fladd@b+3,f
  4496  0605  0BE6               	decfsz	??___fladd,f
  4497  0606  2E00               	goto	u3475
  4498  0607                     l2380:
  4499  0607  1683               	bsf	3,5	;RP0=1, select bank1
  4500  0608  1303               	bcf	3,6	;RP1=0, select bank1
  4501  0609  1FA3               	btfss	___fladd@grs^(0+128),7
  4502  060A  2E0C               	goto	u3481
  4503  060B  2E0D               	goto	u3480
  4504  060C                     u3481:
  4505  060C  2E10               	goto	l524
  4506  060D                     u3480:
  4507  060D                     l2382:
  4508  060D  1283               	bcf	3,5	;RP0=0, select bank0
  4509  060E  1303               	bcf	3,6	;RP1=0, select bank0
  4510  060F  145E               	bsf	___fladd@b,0
  4511  0610                     l524:
  4512  0610  1683               	bsf	3,5	;RP0=1, select bank1
  4513  0611  1303               	bcf	3,6	;RP1=0, select bank1
  4514  0612  1C23               	btfss	___fladd@grs^(0+128),0
  4515  0613  2E15               	goto	u3491
  4516  0614  2E16               	goto	u3490
  4517  0615                     u3491:
  4518  0615  2E19               	goto	l2386
  4519  0616                     u3490:
  4520  0616                     l2384:
  4521  0616  1403               	setc
  4522  0617  0DA3               	rlf	___fladd@grs^(0+128),f
  4523  0618  2E1B               	goto	l2388
  4524  0619                     l2386:
  4525  0619  1003               	clrc
  4526  061A  0DA3               	rlf	___fladd@grs^(0+128),f
  4527  061B                     l2388:
  4528  061B  0822               	movf	___fladd@bexp^(0+128),w
  4529  061C  1903               	btfsc	3,2
  4530  061D  2E1F               	goto	u3501
  4531  061E  2E20               	goto	u3500
  4532  061F                     u3501:
  4533  061F  2E22               	goto	l2392
  4534  0620                     u3500:
  4535  0620                     l2390:
  4536  0620  3001               	movlw	1
  4537  0621  02A2               	subwf	___fladd@bexp^(0+128),f
  4538  0622                     l2392:
  4539  0622  1283               	bcf	3,5	;RP0=0, select bank0
  4540  0623  1FE0               	btfss	___fladd@b+2,7
  4541  0624  2E26               	goto	u3511
  4542  0625  2E27               	goto	u3510
  4543  0626                     u3511:
  4544  0626  2DFE               	goto	l2378
  4545  0627                     u3510:
  4546  0627                     l2394:
  4547  0627  1683               	bsf	3,5	;RP0=1, select bank1
  4548  0628  1303               	bcf	3,6	;RP1=0, select bank1
  4549  0629  01A1               	clrf	___fladd@aexp^(0+128)
  4550  062A                     l2396:
  4551  062A  1FA3               	btfss	___fladd@grs^(0+128),7
  4552  062B  2E2D               	goto	u3521
  4553  062C  2E2E               	goto	u3520
  4554  062D                     u3521:
  4555  062D  2E40               	goto	l2404
  4556  062E                     u3520:
  4557  062E                     l2398:
  4558  062E  0823               	movf	___fladd@grs^(0+128),w
  4559  062F  397F               	andlw	127
  4560  0630  1903               	btfsc	3,2
  4561  0631  2E33               	goto	u3531
  4562  0632  2E34               	goto	u3530
  4563  0633                     u3531:
  4564  0633  2E39               	goto	l530
  4565  0634                     u3530:
  4566  0634                     l2400:
  4567  0634  1683               	bsf	3,5	;RP0=1, select bank1
  4568  0635  1303               	bcf	3,6	;RP1=0, select bank1
  4569  0636  01A1               	clrf	___fladd@aexp^(0+128)
  4570  0637  0AA1               	incf	___fladd@aexp^(0+128),f
  4571  0638  2E40               	goto	l2404
  4572  0639                     l530:
  4573  0639  1283               	bcf	3,5	;RP0=0, select bank0
  4574  063A  1303               	bcf	3,6	;RP1=0, select bank0
  4575  063B  1C5E               	btfss	___fladd@b,0
  4576  063C  2E3E               	goto	u3541
  4577  063D  2E3F               	goto	u3540
  4578  063E                     u3541:
  4579  063E  2E40               	goto	l2404
  4580  063F                     u3540:
  4581  063F  2E34               	goto	l2400
  4582  0640                     l2404:
  4583  0640  1683               	bsf	3,5	;RP0=1, select bank1
  4584  0641  1303               	bcf	3,6	;RP1=0, select bank1
  4585  0642  0821               	movf	___fladd@aexp^(0+128),w
  4586  0643  1903               	btfsc	3,2
  4587  0644  2E46               	goto	u3551
  4588  0645  2E47               	goto	u3550
  4589  0646                     u3551:
  4590  0646  2E83               	goto	l533
  4591  0647                     u3550:
  4592  0647                     l2406:
  4593  0647  3001               	movlw	1
  4594  0648  1283               	bcf	3,5	;RP0=0, select bank0
  4595  0649  1303               	bcf	3,6	;RP1=0, select bank0
  4596  064A  07DE               	addwf	___fladd@b,f
  4597  064B  3000               	movlw	0
  4598  064C  1803               	skipnc
  4599  064D  3001               	movlw	1
  4600  064E  07DF               	addwf	___fladd@b+1,f
  4601  064F  3000               	movlw	0
  4602  0650  1803               	skipnc
  4603  0651  3001               	movlw	1
  4604  0652  07E0               	addwf	___fladd@b+2,f
  4605  0653  3000               	movlw	0
  4606  0654  1803               	skipnc
  4607  0655  3001               	movlw	1
  4608  0656  07E1               	addwf	___fladd@b+3,f
  4609  0657                     l2408:
  4610  0657  1C61               	btfss	___fladd@b+3,0
  4611  0658  2E5A               	goto	u3561
  4612  0659  2E5B               	goto	u3560
  4613  065A                     u3561:
  4614  065A  2E83               	goto	l533
  4615  065B                     u3560:
  4616  065B                     l2410:
  4617  065B  085E               	movf	___fladd@b,w
  4618  065C  00E6               	movwf	??___fladd
  4619  065D  085F               	movf	___fladd@b+1,w
  4620  065E  00E7               	movwf	??___fladd+1
  4621  065F  0860               	movf	___fladd@b+2,w
  4622  0660  00E8               	movwf	??___fladd+2
  4623  0661  0861               	movf	___fladd@b+3,w
  4624  0662  00E9               	movwf	??___fladd+3
  4625  0663  3001               	movlw	1
  4626  0664  00EA               	movwf	??___fladd+4
  4627  0665                     u3575:
  4628  0665  0D69               	rlf	??___fladd+3,w
  4629  0666  0CE9               	rrf	??___fladd+3,f
  4630  0667  0CE8               	rrf	??___fladd+2,f
  4631  0668  0CE7               	rrf	??___fladd+1,f
  4632  0669  0CE6               	rrf	??___fladd,f
  4633  066A                     u3570:
  4634  066A  0BEA               	decfsz	??___fladd+4,f
  4635  066B  2E65               	goto	u3575
  4636  066C  0869               	movf	??___fladd+3,w
  4637  066D  00E1               	movwf	___fladd@b+3
  4638  066E  0868               	movf	??___fladd+2,w
  4639  066F  00E0               	movwf	___fladd@b+2
  4640  0670  0867               	movf	??___fladd+1,w
  4641  0671  00DF               	movwf	___fladd@b+1
  4642  0672  0866               	movf	??___fladd,w
  4643  0673  00DE               	movwf	___fladd@b
  4644  0674  1683               	bsf	3,5	;RP0=1, select bank1
  4645  0675  1303               	bcf	3,6	;RP1=0, select bank1
  4646  0676  0A22               	incf	___fladd@bexp^(0+128),w
  4647  0677  1903               	btfsc	3,2
  4648  0678  2E7A               	goto	u3581
  4649  0679  2E7B               	goto	u3580
  4650  067A                     u3581:
  4651  067A  2E83               	goto	l533
  4652  067B                     u3580:
  4653  067B                     l2412:
  4654  067B  3001               	movlw	1
  4655  067C  1283               	bcf	3,5	;RP0=0, select bank0
  4656  067D  1303               	bcf	3,6	;RP1=0, select bank0
  4657  067E  00E6               	movwf	??___fladd
  4658  067F  0866               	movf	??___fladd,w
  4659  0680  1683               	bsf	3,5	;RP0=1, select bank1
  4660  0681  1303               	bcf	3,6	;RP1=0, select bank1
  4661  0682  07A2               	addwf	___fladd@bexp^(0+128),f
  4662  0683                     l533:
  4663  0683  1683               	bsf	3,5	;RP0=1, select bank1
  4664  0684  1303               	bcf	3,6	;RP1=0, select bank1
  4665  0685  0A22               	incf	___fladd@bexp^(0+128),w
  4666  0686  1903               	btfsc	3,2
  4667  0687  2E89               	goto	u3591
  4668  0688  2E8A               	goto	u3590
  4669  0689                     u3591:
  4670  0689  2E8F               	goto	l2416
  4671  068A                     u3590:
  4672  068A                     l2414:
  4673  068A  0822               	movf	___fladd@bexp^(0+128),w
  4674  068B  1D03               	btfss	3,2
  4675  068C  2E8E               	goto	u3601
  4676  068D  2E8F               	goto	u3600
  4677  068E                     u3601:
  4678  068E  2EA1               	goto	l2422
  4679  068F                     u3600:
  4680  068F                     l2416:
  4681  068F  3000               	movlw	0
  4682  0690  1283               	bcf	3,5	;RP0=0, select bank0
  4683  0691  1303               	bcf	3,6	;RP1=0, select bank0
  4684  0692  00E1               	movwf	___fladd@b+3
  4685  0693  3000               	movlw	0
  4686  0694  00E0               	movwf	___fladd@b+2
  4687  0695  3000               	movlw	0
  4688  0696  00DF               	movwf	___fladd@b+1
  4689  0697  3000               	movlw	0
  4690  0698  00DE               	movwf	___fladd@b
  4691  0699                     l2418:
  4692  0699  1683               	bsf	3,5	;RP0=1, select bank1
  4693  069A  1303               	bcf	3,6	;RP1=0, select bank1
  4694  069B  0822               	movf	___fladd@bexp^(0+128),w
  4695  069C  1D03               	btfss	3,2
  4696  069D  2E9F               	goto	u3611
  4697  069E  2EA0               	goto	u3610
  4698  069F                     u3611:
  4699  069F  2EA1               	goto	l2422
  4700  06A0                     u3610:
  4701  06A0                     l2420:
  4702  06A0  01A0               	clrf	___fladd@signs^(0+128)
  4703  06A1                     l2422:
  4704  06A1  1C22               	btfss	___fladd@bexp^(0+128),0
  4705  06A2  2EA4               	goto	u3621
  4706  06A3  2EA5               	goto	u3620
  4707  06A4                     u3621:
  4708  06A4  2EA9               	goto	l2426
  4709  06A5                     u3620:
  4710  06A5                     l2424:
  4711  06A5  1283               	bcf	3,5	;RP0=0, select bank0
  4712  06A6  1303               	bcf	3,6	;RP1=0, select bank0
  4713  06A7  17E0               	bsf	___fladd@b+2,7
  4714  06A8  2EAF               	goto	l541
  4715  06A9                     l2426:
  4716  06A9  307F               	movlw	127
  4717  06AA  1283               	bcf	3,5	;RP0=0, select bank0
  4718  06AB  1303               	bcf	3,6	;RP1=0, select bank0
  4719  06AC  00E6               	movwf	??___fladd
  4720  06AD  0866               	movf	??___fladd,w
  4721  06AE  05E0               	andwf	___fladd@b+2,f
  4722  06AF                     l541:
  4723  06AF  1683               	bsf	3,5	;RP0=1, select bank1
  4724  06B0  1303               	bcf	3,6	;RP1=0, select bank1
  4725  06B1  0822               	movf	___fladd@bexp^(0+128),w
  4726  06B2  1283               	bcf	3,5	;RP0=0, select bank0
  4727  06B3  1303               	bcf	3,6	;RP1=0, select bank0
  4728  06B4  00E6               	movwf	??___fladd
  4729  06B5  1003               	clrc
  4730  06B6  0C66               	rrf	??___fladd,w
  4731  06B7  00E7               	movwf	??___fladd+1
  4732  06B8  0867               	movf	??___fladd+1,w
  4733  06B9  00E1               	movwf	___fladd@b+3
  4734  06BA                     l2428:
  4735  06BA  1683               	bsf	3,5	;RP0=1, select bank1
  4736  06BB  1303               	bcf	3,6	;RP1=0, select bank1
  4737  06BC  1FA0               	btfss	___fladd@signs^(0+128),7
  4738  06BD  2EBF               	goto	u3631
  4739  06BE  2EC0               	goto	u3630
  4740  06BF                     u3631:
  4741  06BF  2EC3               	goto	l542
  4742  06C0                     u3630:
  4743  06C0                     l2430:
  4744  06C0  1283               	bcf	3,5	;RP0=0, select bank0
  4745  06C1  1303               	bcf	3,6	;RP1=0, select bank0
  4746  06C2  17E1               	bsf	___fladd@b+3,7
  4747  06C3                     l542:
  4748  06C3                     l512:
  4749  06C3  0008               	return
  4750  06C4                     __end_of___fladd:
  4751                           
  4752                           	psect	text9
  4753  0783                     __ptext9:	
  4754 ;; *************** function _isr *****************
  4755 ;; Defined at:
  4756 ;;		line 59 in file "main.c"
  4757 ;; Parameters:    Size  Location     Type
  4758 ;;		None
  4759 ;; Auto vars:     Size  Location     Type
  4760 ;;		None
  4761 ;; Return value:  Size  Location     Type
  4762 ;;                  1    wreg      void 
  4763 ;; Registers used:
  4764 ;;		wreg, status,2, status,0
  4765 ;; Tracked objects:
  4766 ;;		On entry : 0/0
  4767 ;;		On exit  : 0/0
  4768 ;;		Unchanged: 0/0
  4769 ;; Data sizes:     COMMON   BANK0   BANK1   BANK3   BANK2
  4770 ;;      Params:         0       0       0       0       0
  4771 ;;      Locals:         0       0       0       0       0
  4772 ;;      Temps:          3       0       0       0       0
  4773 ;;      Totals:         3       0       0       0       0
  4774 ;;Total ram usage:        3 bytes
  4775 ;; Hardware stack levels used: 1
  4776 ;; This function calls:
  4777 ;;		Nothing
  4778 ;; This function is called by:
  4779 ;;		Interrupt level 1
  4780 ;; This function uses a non-reentrant model
  4781 ;;
  4782                           
  4783  0783                     _isr:	
  4784                           ;psect for function _isr
  4785                           
  4786  0783                     i1l2128:
  4787                           
  4788                           ;main.c: 60:     if(PORTBbits.RB5){
  4789  0783  1283               	bcf	3,5	;RP0=0, select bank0
  4790  0784  1303               	bcf	3,6	;RP1=0, select bank0
  4791  0785  1E86               	btfss	6,5	;volatile
  4792  0786  2F88               	goto	u293_21
  4793  0787  2F89               	goto	u293_20
  4794  0788                     u293_21:
  4795  0788  2F97               	goto	i1l83
  4796  0789                     u293_20:
  4797  0789                     i1l2130:
  4798                           
  4799                           ;main.c: 61:         if(PIR1bits.ADIF){
  4800  0789  1F0C               	btfss	12,6	;volatile
  4801  078A  2F8C               	goto	u294_21
  4802  078B  2F8D               	goto	u294_20
  4803  078C                     u294_21:
  4804  078C  2FC2               	goto	i1l94
  4805  078D                     u294_20:
  4806  078D                     i1l2132:
  4807                           
  4808                           ;main.c: 62:             valor_pot = ADRESH;
  4809  078D  081E               	movf	30,w	;volatile
  4810  078E  00F0               	movwf	??_isr
  4811  078F  0870               	movf	??_isr,w
  4812  0790  1683               	bsf	3,5	;RP0=1, select bank1
  4813  0791  1303               	bcf	3,6	;RP1=0, select bank1
  4814  0792  00B9               	movwf	_valor_pot^(0+128)
  4815  0793                     i1l2134:
  4816                           
  4817                           ;main.c: 63:             PIR1bits.ADIF = 0;
  4818  0793  1283               	bcf	3,5	;RP0=0, select bank0
  4819  0794  1303               	bcf	3,6	;RP1=0, select bank0
  4820  0795  130C               	bcf	12,6	;volatile
  4821  0796  2FC2               	goto	i1l94
  4822  0797                     i1l83:	
  4823                           ;main.c: 66:     else{
  4824                           
  4825                           
  4826                           ;main.c: 67:         if(PIR1bits.SSPIF){
  4827  0797  1D8C               	btfss	12,3	;volatile
  4828  0798  2F9A               	goto	u295_21
  4829  0799  2F9B               	goto	u295_20
  4830  079A                     u295_21:
  4831  079A  2FAD               	goto	i1l86
  4832  079B                     u295_20:
  4833  079B                     i1l2136:
  4834                           
  4835                           ;main.c: 68:             val_temporal = SSPBUF;
  4836  079B  0813               	movf	19,w	;volatile
  4837  079C  00F0               	movwf	??_isr
  4838  079D  0870               	movf	??_isr,w
  4839  079E  00F9               	movwf	_val_temporal
  4840  079F                     i1l2138:
  4841                           
  4842                           ;main.c: 69:             if (val_temporal != 0xFF){
  4843  079F  0A79               	incf	_val_temporal,w
  4844  07A0  1903               	btfsc	3,2
  4845  07A1  2FA3               	goto	u296_21
  4846  07A2  2FA4               	goto	u296_20
  4847  07A3                     u296_21:
  4848  07A3  2FA9               	goto	i1l2142
  4849  07A4                     u296_20:
  4850  07A4                     i1l2140:
  4851                           
  4852                           ;main.c: 70:                 PORTD = val_temporal;
  4853  07A4  0879               	movf	_val_temporal,w
  4854  07A5  0088               	movwf	8	;volatile
  4855                           
  4856                           ;main.c: 71:                 SSPBUF = contador;
  4857  07A6  0878               	movf	_contador,w
  4858  07A7  0093               	movwf	19	;volatile
  4859                           
  4860                           ;main.c: 72:             }
  4861  07A8  2FAB               	goto	i1l2144
  4862  07A9                     i1l2142:
  4863                           
  4864                           ;main.c: 74:                 SSPBUF = contador;
  4865  07A9  0878               	movf	_contador,w
  4866  07AA  0093               	movwf	19	;volatile
  4867  07AB                     i1l2144:
  4868                           
  4869                           ;main.c: 76:             PIR1bits.SSPIF = 0;
  4870  07AB  118C               	bcf	12,3	;volatile
  4871                           
  4872                           ;main.c: 77:         }
  4873  07AC  2FC2               	goto	i1l94
  4874  07AD                     i1l86:	
  4875                           ;main.c: 78:         else if(INTCONbits.RBIF){
  4876                           
  4877  07AD  1C0B               	btfss	11,0	;volatile
  4878  07AE  2FB0               	goto	u297_21
  4879  07AF  2FB1               	goto	u297_20
  4880  07B0                     u297_21:
  4881  07B0  2FC2               	goto	i1l85
  4882  07B1                     u297_20:
  4883  07B1                     i1l2146:
  4884                           
  4885                           ;main.c: 79:             if(!PORTBbits.RB0){
  4886  07B1  1806               	btfsc	6,0	;volatile
  4887  07B2  2FB4               	goto	u298_21
  4888  07B3  2FB5               	goto	u298_20
  4889  07B4                     u298_21:
  4890  07B4  2FBA               	goto	i1l91
  4891  07B5                     u298_20:
  4892  07B5                     i1l2148:
  4893                           
  4894                           ;main.c: 80:                 contador++;
  4895  07B5  3001               	movlw	1
  4896  07B6  00F0               	movwf	??_isr
  4897  07B7  0870               	movf	??_isr,w
  4898  07B8  07F8               	addwf	_contador,f
  4899                           
  4900                           ;main.c: 81:             }
  4901  07B9  2FC0               	goto	i1l2152
  4902  07BA                     i1l91:	
  4903                           ;main.c: 82:             else if(!PORTBbits.RB1){
  4904                           
  4905  07BA  1886               	btfsc	6,1	;volatile
  4906  07BB  2FBD               	goto	u299_21
  4907  07BC  2FBE               	goto	u299_20
  4908  07BD                     u299_21:
  4909  07BD  2FC0               	goto	i1l2152
  4910  07BE                     u299_20:
  4911  07BE                     i1l2150:
  4912                           
  4913                           ;main.c: 83:                 contador--;
  4914  07BE  3001               	movlw	1
  4915  07BF  02F8               	subwf	_contador,f
  4916  07C0                     i1l2152:
  4917                           
  4918                           ;main.c: 85:             INTCONbits.RBIF = 0;
  4919  07C0  100B               	bcf	11,0	;volatile
  4920  07C1  2FC2               	goto	i1l94
  4921  07C2                     i1l85:	
  4922                           ;main.c: 87:     }
  4923                           
  4924  07C2                     i1l94:
  4925  07C2  0872               	movf	??_isr+2,w
  4926  07C3  008A               	movwf	10
  4927  07C4  0E71               	swapf	??_isr+1,w
  4928  07C5  0083               	movwf	3
  4929  07C6  0EFE               	swapf	btemp,f
  4930  07C7  0E7E               	swapf	btemp,w
  4931  07C8  0009               	retfie
  4932  07C9                     __end_of_isr:
  4933  007E                     btemp	set	126	;btemp
  4934  007E                     wtemp0	set	126
  4935                           
  4936                           	psect	intentry
  4937  0004                     __pintentry:	
  4938                           ;incstack = 0
  4939                           ; Regs used in _isr: [wreg+status,2+status,0]
  4940                           
  4941  0004                     interrupt_function:
  4942  007E                     saved_w	set	btemp
  4943  0004  00FE               	movwf	btemp
  4944  0005  0E03               	swapf	3,w
  4945  0006  00F1               	movwf	??_isr+1
  4946  0007  080A               	movf	10,w
  4947  0008  00F2               	movwf	??_isr+2
  4948  0009  120A  118A  2F83   	ljmp	_isr
  4949                           
  4950                           	psect	idloc
  4951                           
  4952                           ;Config register IDLOC0 @ 0x2000
  4953                           ;	unspecified, using default values
  4954  2000                     	org	8192
  4955  2000  3FFF               	dw	16383
  4956                           
  4957                           ;Config register IDLOC1 @ 0x2001
  4958                           ;	unspecified, using default values
  4959  2001                     	org	8193
  4960  2001  3FFF               	dw	16383
  4961                           
  4962                           ;Config register IDLOC2 @ 0x2002
  4963                           ;	unspecified, using default values
  4964  2002                     	org	8194
  4965  2002  3FFF               	dw	16383
  4966                           
  4967                           ;Config register IDLOC3 @ 0x2003
  4968                           ;	unspecified, using default values
  4969  2003                     	org	8195
  4970  2003  3FFF               	dw	16383
  4971                           
  4972                           	psect	config
  4973                           
  4974                           ;Config register CONFIG1 @ 0x2007
  4975                           ;	Oscillator Selection bits
  4976                           ;	FOSC = INTRC_NOCLKOUT, INTOSCIO oscillator: I/O function on RA6/OSC2/CLKOUT pin, I/O f
      +                          unction on RA7/OSC1/CLKIN
  4977                           ;	Watchdog Timer Enable bit
  4978                           ;	WDTE = OFF, WDT disabled and can be enabled by SWDTEN bit of the WDTCON register
  4979                           ;	Power-up Timer Enable bit
  4980                           ;	PWRTE = OFF, PWRT disabled
  4981                           ;	RE3/MCLR pin function select bit
  4982                           ;	MCLRE = OFF, RE3/MCLR pin function is digital input, MCLR internally tied to VDD
  4983                           ;	Code Protection bit
  4984                           ;	CP = OFF, Program memory code protection is disabled
  4985                           ;	Data Code Protection bit
  4986                           ;	CPD = OFF, Data memory code protection is disabled
  4987                           ;	Brown Out Reset Selection bits
  4988                           ;	BOREN = OFF, BOR disabled
  4989                           ;	Internal External Switchover bit
  4990                           ;	IESO = OFF, Internal/External Switchover mode is disabled
  4991                           ;	Fail-Safe Clock Monitor Enabled bit
  4992                           ;	FCMEN = OFF, Fail-Safe Clock Monitor is disabled
  4993                           ;	Low Voltage Programming Enable bit
  4994                           ;	LVP = OFF, RB3 pin has digital I/O, HV on MCLR must be used for programming
  4995                           ;	In-Circuit Debugger Mode bit
  4996                           ;	DEBUG = 0x1, unprogrammed default
  4997  2007                     	org	8199
  4998  2007  20D4               	dw	8404
  4999                           
  5000                           ;Config register CONFIG2 @ 0x2008
  5001                           ;	Brown-out Reset Selection bit
  5002                           ;	BOR4V = BOR40V, Brown-out Reset set to 4.0V
  5003                           ;	Flash Program Memory Self Write Enable bits
  5004                           ;	WRT = OFF, Write protection off
  5005  2008                     	org	8200
  5006  2008  3FFF               	dw	16383

Data Sizes:
    Strings     0
    Constant    0
    Data        1
    BSS         8
    Persistent  0
    Stack       0

Auto Spaces:
    Space          Size  Autos    Used
    COMMON           14      8      11
    BANK0            80     80      80
    BANK1            80     21      27
    BANK3            96      0       0
    BANK2            96      0       0

Pointer List with Targets:

    None.

Critical Paths under _main in COMMON

    _main->_map
    _map->___xxtofl
    ___fltol->___xxtofl
    ___flmul->__Umul8_16
    ___flmul->___xxtofl
    ___fldiv->___xxtofl
    ___fladd->___xxtofl

Critical Paths under _isr in COMMON

    None.

Critical Paths under _main in BANK0

    _map->___fltol
    ___fltol->___fladd
    ___flmul->___fldiv
    ___fldiv->___xxtofl
    ___fladd->___flmul

Critical Paths under _isr in BANK0

    None.

Critical Paths under _main in BANK1

    _main->_map
    _map->___fltol
    ___fltol->___fladd

Critical Paths under _isr in BANK1

    None.

Critical Paths under _main in BANK3

    None.

Critical Paths under _isr in BANK3

    None.

Critical Paths under _main in BANK2

    None.

Critical Paths under _isr in BANK2

    None.

Call Graph Tables:

 ---------------------------------------------------------------------------------
 (Depth) Function   	        Calls       Base Space   Used Autos Params    Refs
 ---------------------------------------------------------------------------------
 (0) _main                                                 2     2      0   10318
                                             19 BANK1      2     2      0
                                _map
                              _setup
 ---------------------------------------------------------------------------------
 (1) _setup                                                1     1      0       0
                                              3 COMMON     1     1      0
 ---------------------------------------------------------------------------------
 (1) _map                                                  7     1      6   10318
                                              7 COMMON     1     1      0
                                             13 BANK1      6     0      6
                            ___fladd
                            ___fldiv
                            ___flmul
                            ___fltol
                           ___xxtofl
 ---------------------------------------------------------------------------------
 (2) ___xxtofl                                            14    10      4     836
                                              3 COMMON     4     0      4
                                              0 BANK0     10    10      0
 ---------------------------------------------------------------------------------
 (2) ___fltol                                             11     7      4     427
                                             78 BANK0      2     2      0
                                              4 BANK1      9     5      4
                            ___fladd (ARG)
                            ___fldiv (ARG)
                            ___flmul (ARG)
                           ___xxtofl (ARG)
 ---------------------------------------------------------------------------------
 (2) ___flmul                                             26    18      8    3353
                                             36 BANK0     26    18      8
                          __Umul8_16
                            ___fldiv (ARG)
                           ___xxtofl (ARG)
 ---------------------------------------------------------------------------------
 (3) __Umul8_16                                            9     7      2     980
                                              3 COMMON     4     2      2
                                              0 BANK0      5     5      0
 ---------------------------------------------------------------------------------
 (2) ___fldiv                                             26    18      8    1863
                                             10 BANK0     26    18      8
                           ___xxtofl (ARG)
 ---------------------------------------------------------------------------------
 (2) ___fladd                                             20    12      8    3262
                                             62 BANK0     16     8      8
                                              0 BANK1      4     4      0
                            ___fldiv (ARG)
                            ___flmul (ARG)
                           ___xxtofl (ARG)
 ---------------------------------------------------------------------------------
 Estimated maximum stack depth 3
 ---------------------------------------------------------------------------------
 (Depth) Function   	        Calls       Base Space   Used Autos Params    Refs
 ---------------------------------------------------------------------------------
 (4) _isr                                                  3     3      0       0
                                              0 COMMON     3     3      0
 ---------------------------------------------------------------------------------
 Estimated maximum stack depth 4
 ---------------------------------------------------------------------------------

 Call Graph Graphs:

 _main (ROOT)
   _map
     ___fladd
       ___fldiv (ARG)
         ___xxtofl (ARG)
       ___flmul (ARG)
         __Umul8_16
         ___fldiv (ARG)
         ___xxtofl (ARG)
       ___xxtofl (ARG)
     ___fldiv
     ___flmul
     ___fltol
       ___fladd (ARG)
       ___fldiv (ARG)
       ___flmul (ARG)
       ___xxtofl (ARG)
     ___xxtofl
   _setup

 _isr (ROOT)

 Address spaces:
Name               Size   Autos  Total    Cost      Usage
BANK3               60      0       0       9        0.0%
BITBANK3            60      0       0       8        0.0%
SFR3                 0      0       0       4        0.0%
BITSFR3              0      0       0       4        0.0%
BANK2               60      0       0      11        0.0%
BITBANK2            60      0       0      10        0.0%
SFR2                 0      0       0       5        0.0%
BITSFR2              0      0       0       5        0.0%
BANK1               50     15      1B       7       33.8%
BITBANK1            50      0       0       6        0.0%
SFR1                 0      0       0       2        0.0%
BITSFR1              0      0       0       2        0.0%
BANK0               50     50      50       5      100.0%
BITBANK0            50      0       0       4        0.0%
SFR0                 0      0       0       1        0.0%
BITSFR0              0      0       0       1        0.0%
COMMON               E      8       B       1       78.6%
BITCOMMON            E      0       0       0        0.0%
CODE                 0      0       0       0        0.0%
DATA                 0      0      76      12        0.0%
ABS                  0      0      76       3        0.0%
NULL                 0      0       0       0        0.0%
STACK                0      0       0       2        0.0%
EEDATA             100      0       0       0        0.0%


Microchip Technology PIC Macro Assembler V2.35 build 20211206165544 
Symbol Table                                                                                   Tue May 10 10:55:03 2022

           ___fldiv@aexp 0043             ___fldiv@bexp 0042             ___fldiv@sign 003B  
            _SSPSTATbits 0094      __Umul8_16@word_mpld 0022                      l101 06D4  
                    l103 06F8                      l120 0D66                      l106 072D  
                    l117 0C1E                      l402 0CB0                      l503 0501  
                    l520 05E3                      l512 06C3                      l505 04CD  
                    l601 02EF                      l530 0639                      l524 0610  
                    l541 06AF                      l533 0683                      l542 06C3  
                    l614 07DF                      l607 0377                      l616 07F1  
                    l392 0CB0                      l641 0E22                      l571 0F71  
                    l555 0E7F                      l652 0DEC                      l557 0FFF  
                    l653 0DF8                      l645 0DD0                      l399 0C99  
                    l639 0D8B                      l577 0FE3                      l499 0409  
                    l579 0FF3                      l595 0383                      _PR2 0092  
                    _map 0CB1                      _isr 0783             ___flmul@aexp 0052  
           ___flmul@bexp 0057             ___flmul@sign 0051             ___flmul@temp 005C  
           ___flmul@prod 0058             ___fltol@exp1 006F                     l2100 0C0A  
                   l2020 0B96                     l2110 0C12                     l2102 0C0B  
                   l2030 0BA7                     l2022 0B9A                     l2120 0C1B  
                   l2112 0C15                     l2104 0C0D                     l2040 0BBB  
                   l2032 0BAA                     l2024 0B9B                     l2210 0C52  
                   l2202 0C1F                     l2122 0C1D                     l2114 0C18  
                   l2106 0C0E                     l2050 0BC5                     l2042 0BBE  
                   l2034 0BB0                     l2026 0BA2                     l2300 0451  
                   l2212 0C55                     l2204 0C2E                     l2116 0C19  
                   l2108 0C0F                     l2060 0BD0                     l2052 0BC6  
                   l2044 0BC0                     l2036 0BB1                     l2028 0BA6  
                   l2310 0473                     l2302 0457                     l2214 0C5D  
                   l2118 0C1A                     l2070 0BE1                     l2062 0BD4  
                   l2054 0BCA                     l2046 0BC1                     l2038 0BB7  
                   l2400 0634                     l2320 04A7                     l2312 0479  
                   l2304 045F                     l2240 038D                     l2232 0C8A  
                   l2224 0C6D                     l2216 0C61                     l2208 0C39  
                   l2080 0BEE                     l2072 0BE4                     l2064 0BD7  
                   l2056 0BCC                     l2048 0BC2                     l2410 065B  
                   l2330 04E9                     l2322 04D1                     l2314 047F  
                   l2306 0465                     l2250 03AC                     l2242 0397  
                   l2234 0C9E                     l2218 0C65                     l2226 0C83  
                   l2090 0BF8                     l2082 0BF2                     l2074 0BE5  
                   l2066 0BDA                     l2058 0BCF                     l2420 06A0  
                   l2412 067B                     l2404 0640                     l2332 04F3  
                   l2324 04DE                     l2308 046B                     l2316 0487  
                   l2260 03CB                     l2252 03B6                     l2244 039D  
                   l2500 0EF1                     l2236 0CA3                     l2092 0BF9  
                   l2084 0BF3                     l2068 0BDE                     l2076 0BE7  
                   l2430 06C0                     l2422 06A1                     l2414 068A  
                   l2406 0647                     l2350 0545                     l2342 0515  
                   l2326 04E0                     l2334 04F9                     l2318 048A  
                   l2270 03E5                     l2262 03D1                     l2254 03B8  
                   l2246 03A0                     l2238 0384                     l2510 0F12  
                   l2502 0EF5                     l2190 07CE                     l2094 0BFB  
                   l2086 0BF4                     l2078 0BEB                     l2424 06A5  
                   l2416 068F                     l2408 0657                     l2352 0547  
                   l2344 052E                     l2336 0505                     l2360 0561  
                   l2328 04E6                     l2272 03EC                     l2280 03FF  
                   l2264 03D2                     l2248 03A7                     l2256 03BA  
                   l2520 0F34                     l2512 0F20                     l2504 0EF6  
                   l2440 0E35                     l2432 0E23                     l2192 07D5  
                   l2600 0061                     l2096 0C04                     l2088 0BF7  
                   l2426 06A9                     l2418 0699                     l2362 0579  
                   l2370 05D5                     l2354 054D                     l2346 0532  
                   l2338 050A                     l2290 042D                     l2282 0411  
                   l2274 03F1                     l2266 03DC                     l2258 03C4  
                   l2522 0F3D                     l2530 0F51                     l2506 0EFF  
                   l2514 0F24                     l2442 0E3A                     l2450 0E4A  
                   l2434 0E2A                     l2194 07D9                     l2610 007D  
                   l2602 0066                     l2098 0C06                     l2428 06BA  
                   l2380 0607                     l2372 05EC                     l2364 05B7  
                   l2356 0550                     l2348 0538                     l2292 0435  
                   l2284 0415                     l2276 03FB                     l2268 03E2  
                   l2532 0F55                     l2524 0F41                     l2516 0F2A  
                   l2508 0F11                     l2460 0E62                     l2452 0E52  
                   l2444 0E3F                     l2436 0E30                     l2196 07E8  
                   l2188 07CC                     l2700 035B                     l2620 00A0  
                   l2612 0082                     l2604 006B                     l2390 0620  
                   l2382 060D                     l2374 05F3                     l2366 05BF  
                   l2358 055A                     l2294 043D                     l2286 041D  
                   l2278 03FD                     l2550 0FA6                     l2542 0F76  
                   l2534 0F56                     l2526 0F42                     l2518 0F32  
                   l2462 0E67                     l2470 0E77                     l2454 0E57  
                   l2446 0E47                     l2438 0E34                     l2198 07ED  
                   l2710 037B                     l2702 035D                     l2630 012E  
                   l2622 00AD                     l2614 0087                     l2606 0073  
                   l2384 0616                     l2392 0622                     l2368 05C4  
                   l2296 0443                     l2288 0425                     l2560 0FDA  
                   l2544 0F7B                     l2552 0FAC                     l2536 0F5A  
                   l2528 0F4B                     l2472 0E87                     l2480 0EA0  
                   l2464 0E6C                     l2456 0E5D                     l2448 0E48  
                   l2704 036B                     l2640 0190                     l2632 014A  
                   l2624 00CA                     l2608 0075                     l2720 0D83  
                   l2386 0619                     l2378 05FE                     l2394 0627  
                   l2298 044B                     l2562 0FE2                     l2554 0FB9  
                   l2546 0F89                     l2538 0F6E                     l2490 0EC8  
                   l2482 0EA5                     l2474 0E93                     l2466 0E74  
                   l2458 0E61                     l2706 036F                     l2650 0220  
                   l2642 01AD                     l2634 0153                     l2626 00E6  
                   l2618 0090                     l2730 0DAE                     l2722 0D93  
                   l2714 0D6A                     l2396 062A                     l2388 061B  
                   l2564 0FE9                     l2556 0FC7                     l2548 0F8D  
                   l2492 0ED0                     l2476 0E97                     l2468 0E75  
                   l2708 0370                     l2660 02B2                     l2652 024D  
                   l2644 01C6                     l2636 0163                     l2628 0112  
                   l2580 0034                     l2740 0DE2                     l2732 0DB5  
                   l2716 0D6F                     l2398 062E                     l2566 0FED  
                   l2558 0FD6                     l2494 0ED8                     l2486 0EAE  
                   l2662 02BB                     l2670 02CF                     l2654 0273  
                   l2646 01E3                     l2638 0180                     l2590 0049  
                   l2582 0035                     l2574 0023                     l2750 0E15  
                   l2742 0DE6                     l2734 0DB9                     l2726 0D9C  
                   l2718 0D73                     l2568 0FEF                     l2496 0EDA  
                   l2488 0EC0                     l2672 02D3                     l2664 02BF  
                   l2656 029B                     l2648 0210                     l2592 0051  
                   l2584 003A                     l2576 002A                     l2752 0E19  
                   l2744 0DF0                     l2736 0DC7                     l2728 0DA1  
                   l2498 0EDF                     l2690 0324                     l2682 02F4  
                   l2674 02D4                     l2666 02C0                     l2658 02A4  
                   l2594 0056                     l2586 003F                     l2578 0030  
                   l2754 0E1A                     l2746 0DFA                     l2738 0DD7  
                   l2770 06D5                     l2762 06C4                     l2684 02F9  
                   l2692 032A                     l2676 02D8                     l2668 02C9  
                   l2596 005C                     l2588 0047                     l2748 0E10  
                   l2780 070F                     l2772 06DF                     l2764 06C9  
                   l2694 0337                     l2686 0307                     l2678 02EC  
                   l2598 0060                     l2758 0CB2                     l2790 0760  
                   l2782 071C                     l2774 06F4                     l2766 06CF  
                   ?_map 00AD                     l2696 0342                     l2688 030B  
                   l2792 076E                     l2784 0733                     l2776 06FE  
                   l2768 06D3                     l2698 0351                     l2786 0737  
                   l2778 0702                     l2788 0743                     ?_isr 0070  
                   _CCPR 00B5                     u3100 0C65                     _IOCB 0096  
                   u3101 0C64                     u3110 0C6C                     u3111 0C6B  
                   u3200 03AC                     u4000 0087                     u3201 03AB  
                   u4001 0086                     u3210 03D1                     u3050 07D9  
                   u3130 0C82                     u3211 03D0                     u3051 07D8  
                   u4011 00D8                     u3131 0C81                     u3300 04D1  
                   u3220 03E2                     u4012 00DF                     u3140 0C89  
                   u3301 04D0                     u3221 03E1                     u4101 0202  
                   u4021 00F4                     u4013 00E6                     u3141 0C88  
                   u3125 0C6E                     u3310 04E6                     u3230 03EC  
                   u3070 07ED                     u4102 0209                     u4022 00FB  
                   u3311 04E5                     u3231 03EB                     u3071 07EC  
                   u4111 022F                     u4103 0210                     u4031 0120  
                   u4023 0102                     u3240 03F1                     u4200 02D3  
                   u4120 0259                     u4112 0236                     u4032 0127  
                   u3160 0C9E                     u3080 0C2E                     u3241 03F0  
                   u3065 07E0                     u4201 02D2                     u4113 023D  
                   u4041 013C                     u4033 012E                     u3161 0C9D  
                   u3081 0C2D                     u3410 0579                     u3330 0501  
                   u3250 0411                     u4210 02D8                     u4042 0143  
                   u3170 0CA3                     u3090 0C49                     u3411 0578  
                   u3331 0500                     u3251 0410                     u4211 02D7  
                   u4131 0265                     u4043 014A                     u3171 0CA2  
                   u3155 0C8E                     u3500 0620                     u3340 0505  
                   u3260 0415                     u3180 039D                     u4220 02EC  
                   u4140 0281                     u4132 026C                     u4300 0D6F  
                   u3501 061F                     u3421 0590                     u3413 0575  
                   u3405 0553                     u3341 0504                     u3325 04EC  
                   u3261 0414                     u3181 039C                     u4221 02EB  
                   u4133 0273                     u4125 0254                     u4061 0172  
                   u4301 0D6E                     u3510 0627                     u3430 05A4  
                   u3422 0591                     u3350 050A                     u3270 04A7  
                   u3190 03A7                     u4230 02F3                     u4062 0179  
                   u4310 0D73                     u3511 0626                     u3431 05A5  
                   u3423 0596                     u3351 0509                     u3271 04A6  
                   u3191 03A6                     u4231 02F2                     u4151 028D  
                   u4071 019F                     u4063 0180                     u4055 014C  
                   u3095 0C44                     u4311 0D72                     u3600 068F  
                   u3520 062E                     u3440 05C4                     u3432 05AA  
                   u3424 0597                     u3280 04B2                     u4240 02F9  
                   u4152 0294                     u4072 01A6                     u4400 0DF0  
                   u4320 0D93                     u3601 068E                     u3521 062D  
                   u3441 05C3                     u3433 05AB                     u3425 059C  
                   u3361 0520                     u3281 04B0                     u4241 02F8  
                   u4153 029B                     u4145 027C                     u4073 01AD  
                   u4401 0DEF                     u4321 0D92                     u3610 06A0  
                   u3530 0634                     u3450 05EC                     u3426 059D  
                   u3370 0532                     u3362 0527                     u3290 04B3  
                   u4250 030B                     u4410 0E05                     u3611 069F  
                   u3531 0633                     u3451 05EB                     u3371 0531  
                   u3363 052E                     u3275 04A3                     u4251 030A  
                   u4091 01D5                     u3620 06A5                     u3540 063F  
                   u3460 05F3                     u3380 0538                     u3700 0E87  
                   u4260 031A                     u4180 02BF                     u4092 01DC  
                   u4420 0E15                     u4340 0DB4                     u3621 06A4  
                   u3541 063E                     u3461 05F2                     u3381 0537  
                   u3701 0E86                     u4181 02BE                     u4165 029D  
                   u4093 01E3                     u4085 01AF                     u4421 0E14  
                   u4341 0DB3                     u3630 06C0                     u3550 0647  
                   u3390 054D                     u3710 0EA5                     u4270 0337  
                   u4430 0E19                     u3631 06BF                     u3551 0646  
                   u3391 054C                     u3711 0EA4                     u4271 0336  
                   u4175 02B4                     u4431 0E18                     u4415 0E00  
                   u4335 0DA6                     u3560 065B                     u3480 060D  
                   u3720 0EDF                     u3640 0E34                     u4280 0351  
                   u4360 0DD6                     u2920 0BB7                     u4440 06CF  
                   u3561 065A                     u3481 060C                     u3721 0EDE  
                   u3641 0E33                     u4281 0350                     u4265 0315  
                   u4361 0DD5                     u2921 0BB6                     u4441 06CE  
                   u3570 066A                     u3490 0616                     u3810 0F41  
                   u3650 0E3A                     u4290 036F                     u4450 06D3  
                   u3491 0615                     u3475 0600                     u3811 0F40  
                   u3651 0E39                     u4291 036E                     u4275 0333  
                   u4195 02C2                     u4355 0DC8                     u4507 06E8  
                   u4451 06D2                     u3580 067B                     u3900 0FB9  
                   u3660 0E3F                     u4380 0DE6                     u4460 06F4  
                   u3581 067A                     u3901 0FB8                     u3805 0F36  
                   u3661 0E3E                     u4285 034D                     u4381 0DE5  
                   u4517 070B                     u4461 06F3                     u3590 068A  
                   u3910 0FD6                     u3830 0F55                     u3750 0EF5  
                   u3670 0E61                     u4390 0DEC                     u4470 06FE  
                   u3591 0689                     u3575 0665                     u3911 0FD5  
                   u3831 0F54                     u3751 0EF4                     u3735 0EE1  
                   u3671 0E60                     u4391 0DEB                     u4375 0DDB  
                   u4527 0718                     u4471 06FD                     u3920 0FED  
                   u3840 0F5A                     u3680 0E67                     u4480 0733  
                   u3921 0FEC                     u3905 0FB5                     u3841 0F59  
                   u3825 0F44                     u3745 0EEA                     u3681 0E66  
                   u4481 0732                     u4537 0725                     u3850 0F6E  
                   u3770 0F11                     u3690 0E6C                     u3930 0034  
                   u3915 0FD2                     u3851 0F6D                     u3771 0F10  
                   u3691 0E6B                     u3931 0033                     u4547 073E  
                   u3860 0F75                     u3780 0F2A                     u3940 003A  
                   u3861 0F74                     u3781 0F29                     u3765 0EF8  
                   u3941 0039                     u4557 0BDC                     u3870 0F7B  
                   u3790 0F32                     u3950 003F                     u3871 0F7A  
                   u3791 0F31                     u3775 0F0D                     u3951 003E  
                   u3880 0F8D                     u3960 0060                     u3881 0F8C  
                   u3961 005F                     u4497 06DB                     u3890 0F9C  
                   u3970 0066                     i1l91 07BA                     i1l83 0797  
                   u3971 0065                     u3980 006B                     i1l85 07C2  
                   u3981 006A                     i1l86 07AD                     i1l94 07C2  
                   u3990 0082                     u3895 0F97                     u3991 0081  
                   _main 06C4                     map@x 0077                     btemp 007E  
                   start 000C          ___fldiv@new_exp 003C                    ??_map 0077  
                  ??_isr 0070            ___fltol@sign1 006E          __end_of___fladd 06C4  
                  ?_main 0070          __end_of___fldiv 1000          __end_of___flmul 0384  
        __end_of___fltol 0CB1                    _ANSEL 0188                    _PORTA 0005  
                  _PORTC 0007                    _PORTD 0008                    _TRISA 0085  
                  _TRISB 0086                    _TRISC 0087                    _TRISD 0088  
                  map@x0 00AD                    map@x1 00AE                    map@y0 00AF  
                  map@y1 00B1                    _setup 0B96                    pclath 000A  
                  status 0003                    wtemp0 007E          __initialization 000F  
           __end_of_main 0783                   ??_main 00B3                   _ADRESH 001E  
                 _CCPR1L 0015                   ?_setup 0070                   _ANSELH 0189  
                 i1l2130 0789                   i1l2140 07A4                   i1l2132 078D  
                 i1l2150 07BE                   i1l2142 07A9                   i1l2134 0793  
                 i1l2152 07C0                   i1l2144 07AB                   i1l2136 079B  
                 i1l2128 0783                   i1l2146 07B1                   i1l2138 079F  
                 i1l2148 07B5                   u293_20 0789                   u293_21 0788  
                 u294_20 078D                   u294_21 078C                   u295_20 079B  
                 u295_21 079A                   u296_20 07A4                   u296_21 07A3  
                 u297_20 07B1                   u297_21 07B0                   u298_20 07B5  
                 u298_21 07B4                   u299_20 07BE                   u299_21 07BD  
                 _SSPBUF 0013         __end_of___xxtofl 0E23                ??___fladd 0066  
              ??___fldiv 0032                ??___flmul 004C                ??___fltol 00A8  
                 saved_w 007E             ___xxtofl@arg 0026             ___xxtofl@exp 0025  
           ___xxtofl@val 0073  __end_of__initialization 001F               ___fltol@f1 00A4  
         __pcstackCOMMON 0070             __pidataBANK1 07F2            __end_of_setup 0C1F  
                ??_setup 0073               __pbssBANK1 00B5        __end_of__Umul8_16 07F2  
             __pmaintext 06C4               __pintentry 0004                  _CCP1CON 0017  
              ?___xxtofl 0073               _cont_slave 00BA                  ___fladd 0384  
                ___fldiv 0E23                  ___flmul 0023                  ___fltol 0C1F  
                __ptext1 0B96                  __ptext2 0CB1                  __ptext3 0D67  
                __ptext4 0C1F                  __ptext5 0023                  __ptext6 07C9  
                __ptext7 0E23                  __ptext8 0384                  __ptext9 0783  
              _T2CONbits 0012               ??___xxtofl 0020                  _old_pot 00B7  
   end_of_initialization 001F                _PORTAbits 0005                _PORTBbits 0006  
            ___fladd@grs 00A3            ___xxtofl@sign 0024                _TRISCbits 0087  
            ___fldiv@grs 003E              ___fldiv@rem 0037              ___flmul@grs 0053  
            _CCP1CONbits 0017      start_initialization 000F              __end_of_map 0D67  
            __end_of_isr 07C9                __Umul8_16 07C9              __pdataBANK1 00BA  
              ___fladd@a 0062                ___fladd@b 005E                ___fldiv@a 002A  
              ___fldiv@b 002E                ___flmul@a 0048                ___flmul@b 0044  
            __pbssCOMMON 0078                ___latbits 0002            __pcstackBANK0 0020  
          __pcstackBANK1 00A0                 ?___fladd 005E                 ?___fldiv 002A  
               ?___flmul 0044                 ?___fltol 00A4               ?__Umul8_16 0073  
      interrupt_function 0004                 _PIE1bits 008C                 _PIR1bits 000C  
              _valor_pot 00B9                _valor_pwm 00B8               _ADCON0bits 001F  
             _ADCON1bits 009F              _cont_master 007A              ??__Umul8_16 0075  
               ___xxtofl 0D67                 _contador 0078             _val_temporal 0079  
             _INTCONbits 000B                 intlevel1 0000               _OSCCONbits 008F  
 __Umul8_16@multiplicand 0073            ___fladd@signs 00A0             ___fladd@aexp 00A1  
           ___fladd@bexp 00A2     __Umul8_16@multiplier 0024               _SSPCONbits 0014  
      __Umul8_16@product 0020  
